
./logger_task:     file format elf32-littlearm


Disassembly of section .text:

00008000 <_start>:
_start():
/Users/winterji/Desktop/FAV/Navazujici/OS/semestralka-kiv-os/sources/userspace/crt0.s:10
;@ startovaci symbol - vstupni bod z jadra OS do uzivatelskeho programu
;@ v podstate jen ihned zavola nejakou C funkci, nepotrebujeme nic tak kritickeho, abychom to vsechno museli psal v ASM
;@ jen _start vlastne ani neni funkce, takze by tento vstupni bod mel byt psany takto; rovnez je treba se ujistit, ze
;@ je tento symbol relokovany spravne na 0x8000 (tam OS ocekava, ze se nachazi vstupni bod)
_start:
    bl __crt0_run
    8000:	eb000017 	bl	8064 <__crt0_run>

00008004 <_hang>:
_hang():
/Users/winterji/Desktop/FAV/Navazujici/OS/semestralka-kiv-os/sources/userspace/crt0.s:13
    ;@ z funkce __crt0_run by se nemel proces uz vratit, ale kdyby neco, tak se zacyklime
_hang:
    b _hang
    8004:	eafffffe 	b	8004 <_hang>

00008008 <__crt0_init_bss>:
__crt0_init_bss():
/Users/winterji/Desktop/FAV/Navazujici/OS/semestralka-kiv-os/sources/userspace/crt0.c:10

extern unsigned int __bss_start;
extern unsigned int __bss_end;

void __crt0_init_bss()
{
    8008:	e52db004 	push	{fp}		; (str fp, [sp, #-4]!)
    800c:	e28db000 	add	fp, sp, #0
    8010:	e24dd00c 	sub	sp, sp, #12
/Users/winterji/Desktop/FAV/Navazujici/OS/semestralka-kiv-os/sources/userspace/crt0.c:11
    for (unsigned int* cur = &__bss_start; cur < &__bss_end; cur++)
    8014:	e59f3040 	ldr	r3, [pc, #64]	; 805c <__crt0_init_bss+0x54>
    8018:	e50b3008 	str	r3, [fp, #-8]
    801c:	ea000005 	b	8038 <__crt0_init_bss+0x30>
/Users/winterji/Desktop/FAV/Navazujici/OS/semestralka-kiv-os/sources/userspace/crt0.c:12 (discriminator 3)
        *cur = 0;
    8020:	e51b3008 	ldr	r3, [fp, #-8]
    8024:	e3a02000 	mov	r2, #0
    8028:	e5832000 	str	r2, [r3]
/Users/winterji/Desktop/FAV/Navazujici/OS/semestralka-kiv-os/sources/userspace/crt0.c:11 (discriminator 3)
    for (unsigned int* cur = &__bss_start; cur < &__bss_end; cur++)
    802c:	e51b3008 	ldr	r3, [fp, #-8]
    8030:	e2833004 	add	r3, r3, #4
    8034:	e50b3008 	str	r3, [fp, #-8]
/Users/winterji/Desktop/FAV/Navazujici/OS/semestralka-kiv-os/sources/userspace/crt0.c:11 (discriminator 1)
    8038:	e51b3008 	ldr	r3, [fp, #-8]
    803c:	e59f201c 	ldr	r2, [pc, #28]	; 8060 <__crt0_init_bss+0x58>
    8040:	e1530002 	cmp	r3, r2
    8044:	3afffff5 	bcc	8020 <__crt0_init_bss+0x18>
/Users/winterji/Desktop/FAV/Navazujici/OS/semestralka-kiv-os/sources/userspace/crt0.c:13
}
    8048:	e320f000 	nop	{0}
    804c:	e320f000 	nop	{0}
    8050:	e28bd000 	add	sp, fp, #0
    8054:	e49db004 	pop	{fp}		; (ldr fp, [sp], #4)
    8058:	e12fff1e 	bx	lr
    805c:	0000929c 	muleq	r0, ip, r2
    8060:	000092ac 	andeq	r9, r0, ip, lsr #5

00008064 <__crt0_run>:
__crt0_run():
/Users/winterji/Desktop/FAV/Navazujici/OS/semestralka-kiv-os/sources/userspace/crt0.c:16

void __crt0_run()
{
    8064:	e92d4800 	push	{fp, lr}
    8068:	e28db004 	add	fp, sp, #4
    806c:	e24dd008 	sub	sp, sp, #8
/Users/winterji/Desktop/FAV/Navazujici/OS/semestralka-kiv-os/sources/userspace/crt0.c:18
    // inicializace .bss sekce (vynulovani)
    __crt0_init_bss();
    8070:	ebffffe4 	bl	8008 <__crt0_init_bss>
/Users/winterji/Desktop/FAV/Navazujici/OS/semestralka-kiv-os/sources/userspace/crt0.c:21

    // volani konstruktoru globalnich trid (C++)
    _cpp_startup();
    8074:	eb000040 	bl	817c <_cpp_startup>
/Users/winterji/Desktop/FAV/Navazujici/OS/semestralka-kiv-os/sources/userspace/crt0.c:26

    // volani funkce main
    // nebudeme se zde zabyvat predavanim parametru do funkce main
    // jinak by se mohly predavat napr. namapovane do virtualniho adr. prostoru a odkazem pres zasobnik (kam nam muze OS pushnout co chce)
    int result = main(0, 0);
    8078:	e3a01000 	mov	r1, #0
    807c:	e3a00000 	mov	r0, #0
    8080:	eb000078 	bl	8268 <main>
    8084:	e50b0008 	str	r0, [fp, #-8]
/Users/winterji/Desktop/FAV/Navazujici/OS/semestralka-kiv-os/sources/userspace/crt0.c:29

    // volani destruktoru globalnich trid (C++)
    _cpp_shutdown();
    8088:	eb000051 	bl	81d4 <_cpp_shutdown>
/Users/winterji/Desktop/FAV/Navazujici/OS/semestralka-kiv-os/sources/userspace/crt0.c:32

    // volani terminate() syscallu s navratovym kodem funkce main
    asm volatile("mov r0, %0" : : "r" (result));
    808c:	e51b3008 	ldr	r3, [fp, #-8]
    8090:	e1a00003 	mov	r0, r3
/Users/winterji/Desktop/FAV/Navazujici/OS/semestralka-kiv-os/sources/userspace/crt0.c:33
    asm volatile("svc #1");
    8094:	ef000001 	svc	0x00000001
/Users/winterji/Desktop/FAV/Navazujici/OS/semestralka-kiv-os/sources/userspace/crt0.c:34
}
    8098:	e320f000 	nop	{0}
    809c:	e24bd004 	sub	sp, fp, #4
    80a0:	e8bd8800 	pop	{fp, pc}

000080a4 <__cxa_guard_acquire>:
__cxa_guard_acquire():
/Users/winterji/Desktop/FAV/Navazujici/OS/semestralka-kiv-os/sources/userspace/cxxabi.cpp:11
	extern "C" int __cxa_guard_acquire (__guard *);
	extern "C" void __cxa_guard_release (__guard *);
	extern "C" void __cxa_guard_abort (__guard *);

	extern "C" int __cxa_guard_acquire (__guard *g)
	{
    80a4:	e52db004 	push	{fp}		; (str fp, [sp, #-4]!)
    80a8:	e28db000 	add	fp, sp, #0
    80ac:	e24dd00c 	sub	sp, sp, #12
    80b0:	e50b0008 	str	r0, [fp, #-8]
/Users/winterji/Desktop/FAV/Navazujici/OS/semestralka-kiv-os/sources/userspace/cxxabi.cpp:12
		return !*(char *)(g);
    80b4:	e51b3008 	ldr	r3, [fp, #-8]
    80b8:	e5d33000 	ldrb	r3, [r3]
    80bc:	e3530000 	cmp	r3, #0
    80c0:	03a03001 	moveq	r3, #1
    80c4:	13a03000 	movne	r3, #0
    80c8:	e6ef3073 	uxtb	r3, r3
/Users/winterji/Desktop/FAV/Navazujici/OS/semestralka-kiv-os/sources/userspace/cxxabi.cpp:13
	}
    80cc:	e1a00003 	mov	r0, r3
    80d0:	e28bd000 	add	sp, fp, #0
    80d4:	e49db004 	pop	{fp}		; (ldr fp, [sp], #4)
    80d8:	e12fff1e 	bx	lr

000080dc <__cxa_guard_release>:
__cxa_guard_release():
/Users/winterji/Desktop/FAV/Navazujici/OS/semestralka-kiv-os/sources/userspace/cxxabi.cpp:16

	extern "C" void __cxa_guard_release (__guard *g)
	{
    80dc:	e52db004 	push	{fp}		; (str fp, [sp, #-4]!)
    80e0:	e28db000 	add	fp, sp, #0
    80e4:	e24dd00c 	sub	sp, sp, #12
    80e8:	e50b0008 	str	r0, [fp, #-8]
/Users/winterji/Desktop/FAV/Navazujici/OS/semestralka-kiv-os/sources/userspace/cxxabi.cpp:17
		*(char *)g = 1;
    80ec:	e51b3008 	ldr	r3, [fp, #-8]
    80f0:	e3a02001 	mov	r2, #1
    80f4:	e5c32000 	strb	r2, [r3]
/Users/winterji/Desktop/FAV/Navazujici/OS/semestralka-kiv-os/sources/userspace/cxxabi.cpp:18
	}
    80f8:	e320f000 	nop	{0}
    80fc:	e28bd000 	add	sp, fp, #0
    8100:	e49db004 	pop	{fp}		; (ldr fp, [sp], #4)
    8104:	e12fff1e 	bx	lr

00008108 <__cxa_guard_abort>:
__cxa_guard_abort():
/Users/winterji/Desktop/FAV/Navazujici/OS/semestralka-kiv-os/sources/userspace/cxxabi.cpp:21

	extern "C" void __cxa_guard_abort (__guard *)
	{
    8108:	e52db004 	push	{fp}		; (str fp, [sp, #-4]!)
    810c:	e28db000 	add	fp, sp, #0
    8110:	e24dd00c 	sub	sp, sp, #12
    8114:	e50b0008 	str	r0, [fp, #-8]
/Users/winterji/Desktop/FAV/Navazujici/OS/semestralka-kiv-os/sources/userspace/cxxabi.cpp:23

	}
    8118:	e320f000 	nop	{0}
    811c:	e28bd000 	add	sp, fp, #0
    8120:	e49db004 	pop	{fp}		; (ldr fp, [sp], #4)
    8124:	e12fff1e 	bx	lr

00008128 <__dso_handle>:
__dso_handle():
/Users/winterji/Desktop/FAV/Navazujici/OS/semestralka-kiv-os/sources/userspace/cxxabi.cpp:27
}

extern "C" void __dso_handle()
{
    8128:	e52db004 	push	{fp}		; (str fp, [sp, #-4]!)
    812c:	e28db000 	add	fp, sp, #0
/Users/winterji/Desktop/FAV/Navazujici/OS/semestralka-kiv-os/sources/userspace/cxxabi.cpp:29
    // ignore dtors for now
}
    8130:	e320f000 	nop	{0}
    8134:	e28bd000 	add	sp, fp, #0
    8138:	e49db004 	pop	{fp}		; (ldr fp, [sp], #4)
    813c:	e12fff1e 	bx	lr

00008140 <__cxa_atexit>:
__cxa_atexit():
/Users/winterji/Desktop/FAV/Navazujici/OS/semestralka-kiv-os/sources/userspace/cxxabi.cpp:32

extern "C" void __cxa_atexit()
{
    8140:	e52db004 	push	{fp}		; (str fp, [sp, #-4]!)
    8144:	e28db000 	add	fp, sp, #0
/Users/winterji/Desktop/FAV/Navazujici/OS/semestralka-kiv-os/sources/userspace/cxxabi.cpp:34
    // ignore dtors for now
}
    8148:	e320f000 	nop	{0}
    814c:	e28bd000 	add	sp, fp, #0
    8150:	e49db004 	pop	{fp}		; (ldr fp, [sp], #4)
    8154:	e12fff1e 	bx	lr

00008158 <__cxa_pure_virtual>:
__cxa_pure_virtual():
/Users/winterji/Desktop/FAV/Navazujici/OS/semestralka-kiv-os/sources/userspace/cxxabi.cpp:37

extern "C" void __cxa_pure_virtual()
{
    8158:	e52db004 	push	{fp}		; (str fp, [sp, #-4]!)
    815c:	e28db000 	add	fp, sp, #0
/Users/winterji/Desktop/FAV/Navazujici/OS/semestralka-kiv-os/sources/userspace/cxxabi.cpp:39
    // pure virtual method called
}
    8160:	e320f000 	nop	{0}
    8164:	e28bd000 	add	sp, fp, #0
    8168:	e49db004 	pop	{fp}		; (ldr fp, [sp], #4)
    816c:	e12fff1e 	bx	lr

00008170 <__aeabi_unwind_cpp_pr1>:
__aeabi_unwind_cpp_pr1():
/Users/winterji/Desktop/FAV/Navazujici/OS/semestralka-kiv-os/sources/userspace/cxxabi.cpp:42

extern "C" void __aeabi_unwind_cpp_pr1()
{
    8170:	e52db004 	push	{fp}		; (str fp, [sp, #-4]!)
    8174:	e28db000 	add	fp, sp, #0
/Users/winterji/Desktop/FAV/Navazujici/OS/semestralka-kiv-os/sources/userspace/cxxabi.cpp:43 (discriminator 1)
	while (true)
    8178:	eafffffe 	b	8178 <__aeabi_unwind_cpp_pr1+0x8>

0000817c <_cpp_startup>:
_cpp_startup():
/Users/winterji/Desktop/FAV/Navazujici/OS/semestralka-kiv-os/sources/userspace/cxxabi.cpp:61
extern "C" dtor_ptr __DTOR_LIST__[0];
// konec pole destruktoru
extern "C" dtor_ptr __DTOR_END__[0];

extern "C" int _cpp_startup(void)
{
    817c:	e92d4800 	push	{fp, lr}
    8180:	e28db004 	add	fp, sp, #4
    8184:	e24dd008 	sub	sp, sp, #8
/Users/winterji/Desktop/FAV/Navazujici/OS/semestralka-kiv-os/sources/userspace/cxxabi.cpp:66
	ctor_ptr* fnptr;
	
	// zavolame konstruktory globalnich C++ trid
	// v poli __CTOR_LIST__ jsou ukazatele na vygenerovane stuby volani konstruktoru
	for (fnptr = __CTOR_LIST__; fnptr < __CTOR_END__; fnptr++)
    8188:	e59f303c 	ldr	r3, [pc, #60]	; 81cc <_cpp_startup+0x50>
    818c:	e50b3008 	str	r3, [fp, #-8]
/Users/winterji/Desktop/FAV/Navazujici/OS/semestralka-kiv-os/sources/userspace/cxxabi.cpp:66 (discriminator 3)
    8190:	e51b3008 	ldr	r3, [fp, #-8]
    8194:	e59f2034 	ldr	r2, [pc, #52]	; 81d0 <_cpp_startup+0x54>
    8198:	e1530002 	cmp	r3, r2
    819c:	2a000006 	bcs	81bc <_cpp_startup+0x40>
/Users/winterji/Desktop/FAV/Navazujici/OS/semestralka-kiv-os/sources/userspace/cxxabi.cpp:67 (discriminator 2)
		(*fnptr)();
    81a0:	e51b3008 	ldr	r3, [fp, #-8]
    81a4:	e5933000 	ldr	r3, [r3]
    81a8:	e12fff33 	blx	r3
/Users/winterji/Desktop/FAV/Navazujici/OS/semestralka-kiv-os/sources/userspace/cxxabi.cpp:66 (discriminator 2)
	for (fnptr = __CTOR_LIST__; fnptr < __CTOR_END__; fnptr++)
    81ac:	e51b3008 	ldr	r3, [fp, #-8]
    81b0:	e2833004 	add	r3, r3, #4
    81b4:	e50b3008 	str	r3, [fp, #-8]
    81b8:	eafffff4 	b	8190 <_cpp_startup+0x14>
/Users/winterji/Desktop/FAV/Navazujici/OS/semestralka-kiv-os/sources/userspace/cxxabi.cpp:69
	
	return 0;
    81bc:	e3a03000 	mov	r3, #0
/Users/winterji/Desktop/FAV/Navazujici/OS/semestralka-kiv-os/sources/userspace/cxxabi.cpp:70
}
    81c0:	e1a00003 	mov	r0, r3
    81c4:	e24bd004 	sub	sp, fp, #4
    81c8:	e8bd8800 	pop	{fp, pc}
    81cc:	00009299 	muleq	r0, r9, r2
    81d0:	00009299 	muleq	r0, r9, r2

000081d4 <_cpp_shutdown>:
_cpp_shutdown():
/Users/winterji/Desktop/FAV/Navazujici/OS/semestralka-kiv-os/sources/userspace/cxxabi.cpp:73

extern "C" int _cpp_shutdown(void)
{
    81d4:	e92d4800 	push	{fp, lr}
    81d8:	e28db004 	add	fp, sp, #4
    81dc:	e24dd008 	sub	sp, sp, #8
/Users/winterji/Desktop/FAV/Navazujici/OS/semestralka-kiv-os/sources/userspace/cxxabi.cpp:77
	dtor_ptr* fnptr;
	
	// zavolame destruktory globalnich C++ trid
	for (fnptr = __DTOR_LIST__; fnptr < __DTOR_END__; fnptr++)
    81e0:	e59f303c 	ldr	r3, [pc, #60]	; 8224 <_cpp_shutdown+0x50>
    81e4:	e50b3008 	str	r3, [fp, #-8]
/Users/winterji/Desktop/FAV/Navazujici/OS/semestralka-kiv-os/sources/userspace/cxxabi.cpp:77 (discriminator 3)
    81e8:	e51b3008 	ldr	r3, [fp, #-8]
    81ec:	e59f2034 	ldr	r2, [pc, #52]	; 8228 <_cpp_shutdown+0x54>
    81f0:	e1530002 	cmp	r3, r2
    81f4:	2a000006 	bcs	8214 <_cpp_shutdown+0x40>
/Users/winterji/Desktop/FAV/Navazujici/OS/semestralka-kiv-os/sources/userspace/cxxabi.cpp:78 (discriminator 2)
		(*fnptr)();
    81f8:	e51b3008 	ldr	r3, [fp, #-8]
    81fc:	e5933000 	ldr	r3, [r3]
    8200:	e12fff33 	blx	r3
/Users/winterji/Desktop/FAV/Navazujici/OS/semestralka-kiv-os/sources/userspace/cxxabi.cpp:77 (discriminator 2)
	for (fnptr = __DTOR_LIST__; fnptr < __DTOR_END__; fnptr++)
    8204:	e51b3008 	ldr	r3, [fp, #-8]
    8208:	e2833004 	add	r3, r3, #4
    820c:	e50b3008 	str	r3, [fp, #-8]
    8210:	eafffff4 	b	81e8 <_cpp_shutdown+0x14>
/Users/winterji/Desktop/FAV/Navazujici/OS/semestralka-kiv-os/sources/userspace/cxxabi.cpp:80
	
	return 0;
    8214:	e3a03000 	mov	r3, #0
/Users/winterji/Desktop/FAV/Navazujici/OS/semestralka-kiv-os/sources/userspace/cxxabi.cpp:81
}
    8218:	e1a00003 	mov	r0, r3
    821c:	e24bd004 	sub	sp, fp, #4
    8220:	e8bd8800 	pop	{fp, pc}
    8224:	00009299 	muleq	r0, r9, r2
    8228:	00009299 	muleq	r0, r9, r2

0000822c <_ZL5fputsjPKc>:
_ZL5fputsjPKc():
/Users/winterji/Desktop/FAV/Navazujici/OS/semestralka-kiv-os/sources/userspace/logger_task/main.cpp:14
 * 
 * Prijima vsechny udalosti od ostatnich tasku a oznamuje je skrz UART hostiteli
 **/

static void fputs(uint32_t file, const char* string)
{
    822c:	e92d4800 	push	{fp, lr}
    8230:	e28db004 	add	fp, sp, #4
    8234:	e24dd008 	sub	sp, sp, #8
    8238:	e50b0008 	str	r0, [fp, #-8]
    823c:	e50b100c 	str	r1, [fp, #-12]
/Users/winterji/Desktop/FAV/Navazujici/OS/semestralka-kiv-os/sources/userspace/logger_task/main.cpp:15
	write(file, string, strlen(string));
    8240:	e51b000c 	ldr	r0, [fp, #-12]
    8244:	eb0002f9 	bl	8e30 <_Z6strlenPKc>
    8248:	e1a03000 	mov	r3, r0
    824c:	e1a02003 	mov	r2, r3
    8250:	e51b100c 	ldr	r1, [fp, #-12]
    8254:	e51b0008 	ldr	r0, [fp, #-8]
    8258:	eb00009b 	bl	84cc <_Z5writejPKcj>
/Users/winterji/Desktop/FAV/Navazujici/OS/semestralka-kiv-os/sources/userspace/logger_task/main.cpp:16
}
    825c:	e320f000 	nop	{0}
    8260:	e24bd004 	sub	sp, fp, #4
    8264:	e8bd8800 	pop	{fp, pc}

00008268 <main>:
main():
/Users/winterji/Desktop/FAV/Navazujici/OS/semestralka-kiv-os/sources/userspace/logger_task/main.cpp:19

int main(int argc, char** argv)
{
    8268:	e92d4800 	push	{fp, lr}
    826c:	e28db004 	add	fp, sp, #4
    8270:	e24dd0e0 	sub	sp, sp, #224	; 0xe0
    8274:	e50b00e0 	str	r0, [fp, #-224]	; 0xffffff20
    8278:	e50b10e4 	str	r1, [fp, #-228]	; 0xffffff1c
/Users/winterji/Desktop/FAV/Navazujici/OS/semestralka-kiv-os/sources/userspace/logger_task/main.cpp:20
	uint32_t uart_file = open("DEV:uart/0", NFile_Open_Mode::Write_Only);
    827c:	e3a01001 	mov	r1, #1
    8280:	e59f0124 	ldr	r0, [pc, #292]	; 83ac <main+0x144>
    8284:	eb00006b 	bl	8438 <_Z4openPKc15NFile_Open_Mode>
    8288:	e50b0008 	str	r0, [fp, #-8]
/Users/winterji/Desktop/FAV/Navazujici/OS/semestralka-kiv-os/sources/userspace/logger_task/main.cpp:23

	TUART_IOCtl_Params params;
	params.baud_rate = NUART_Baud_Rate::BR_115200;
    828c:	e59f311c 	ldr	r3, [pc, #284]	; 83b0 <main+0x148>
    8290:	e50b3020 	str	r3, [fp, #-32]	; 0xffffffe0
/Users/winterji/Desktop/FAV/Navazujici/OS/semestralka-kiv-os/sources/userspace/logger_task/main.cpp:24
	params.char_length = NUART_Char_Length::Char_8;
    8294:	e3a03001 	mov	r3, #1
    8298:	e50b3024 	str	r3, [fp, #-36]	; 0xffffffdc
/Users/winterji/Desktop/FAV/Navazujici/OS/semestralka-kiv-os/sources/userspace/logger_task/main.cpp:25
	ioctl(uart_file, NIOCtl_Operation::Set_Params, &params);
    829c:	e24b3024 	sub	r3, fp, #36	; 0x24
    82a0:	e1a02003 	mov	r2, r3
    82a4:	e3a01001 	mov	r1, #1
    82a8:	e51b0008 	ldr	r0, [fp, #-8]
    82ac:	eb0000a5 	bl	8548 <_Z5ioctlj16NIOCtl_OperationPv>
/Users/winterji/Desktop/FAV/Navazujici/OS/semestralka-kiv-os/sources/userspace/logger_task/main.cpp:27

	fputs(uart_file, "Logger task starting!");
    82b0:	e59f10fc 	ldr	r1, [pc, #252]	; 83b4 <main+0x14c>
    82b4:	e51b0008 	ldr	r0, [fp, #-8]
    82b8:	ebffffdb 	bl	822c <_ZL5fputsjPKc>
/Users/winterji/Desktop/FAV/Navazujici/OS/semestralka-kiv-os/sources/userspace/logger_task/main.cpp:32

	char buf[33];
	char big_buf[128];
	char tickbuf[16];
	bzero(big_buf, 128);
    82bc:	e24b30c8 	sub	r3, fp, #200	; 0xc8
    82c0:	e3a01080 	mov	r1, #128	; 0x80
    82c4:	e1a00003 	mov	r0, r3
    82c8:	eb0002ed 	bl	8e84 <_Z5bzeroPvi>
/Users/winterji/Desktop/FAV/Navazujici/OS/semestralka-kiv-os/sources/userspace/logger_task/main.cpp:33
	bzero(tickbuf, 16);
    82cc:	e24b30d8 	sub	r3, fp, #216	; 0xd8
    82d0:	e3a01010 	mov	r1, #16
    82d4:	e1a00003 	mov	r0, r3
    82d8:	eb0002e9 	bl	8e84 <_Z5bzeroPvi>
/Users/winterji/Desktop/FAV/Navazujici/OS/semestralka-kiv-os/sources/userspace/logger_task/main.cpp:34
	bzero(buf, 33);
    82dc:	e24b3048 	sub	r3, fp, #72	; 0x48
    82e0:	e3a01021 	mov	r1, #33	; 0x21
    82e4:	e1a00003 	mov	r0, r3
    82e8:	eb0002e5 	bl	8e84 <_Z5bzeroPvi>
/Users/winterji/Desktop/FAV/Navazujici/OS/semestralka-kiv-os/sources/userspace/logger_task/main.cpp:37
	

	uint32_t last_tick = 0, free_index = 0;
    82ec:	e3a03000 	mov	r3, #0
    82f0:	e50b300c 	str	r3, [fp, #-12]
    82f4:	e3a03000 	mov	r3, #0
    82f8:	e50b3010 	str	r3, [fp, #-16]
/Users/winterji/Desktop/FAV/Navazujici/OS/semestralka-kiv-os/sources/userspace/logger_task/main.cpp:39

	uint32_t logpipe = pipe("log", 128);
    82fc:	e3a01080 	mov	r1, #128	; 0x80
    8300:	e59f00b0 	ldr	r0, [pc, #176]	; 83b8 <main+0x150>
    8304:	eb000119 	bl	8770 <_Z4pipePKcj>
    8308:	e50b0014 	str	r0, [fp, #-20]	; 0xffffffec
/Users/winterji/Desktop/FAV/Navazujici/OS/semestralka-kiv-os/sources/userspace/logger_task/main.cpp:44

	while (true)
	{
		
		wait(logpipe, 1, 0x1000);
    830c:	e3a02a01 	mov	r2, #4096	; 0x1000
    8310:	e3a01001 	mov	r1, #1
    8314:	e51b0014 	ldr	r0, [fp, #-20]	; 0xffffffec
    8318:	eb0000af 	bl	85dc <_Z4waitjjj>
/Users/winterji/Desktop/FAV/Navazujici/OS/semestralka-kiv-os/sources/userspace/logger_task/main.cpp:45
		uint32_t v = read(logpipe, buf, 32);
    831c:	e24b3048 	sub	r3, fp, #72	; 0x48
    8320:	e3a02020 	mov	r2, #32
    8324:	e1a01003 	mov	r1, r3
    8328:	e51b0014 	ldr	r0, [fp, #-20]	; 0xffffffec
    832c:	eb000052 	bl	847c <_Z4readjPcj>
    8330:	e50b0018 	str	r0, [fp, #-24]	; 0xffffffe8
/Users/winterji/Desktop/FAV/Navazujici/OS/semestralka-kiv-os/sources/userspace/logger_task/main.cpp:69
		// 		// zero out the buffer
		// 		bzero(buf, 129);
		// 		free_index = 0;
		// 	}
		// }
		if (v > 0)
    8334:	e51b3018 	ldr	r3, [fp, #-24]	; 0xffffffe8
    8338:	e3530000 	cmp	r3, #0
    833c:	0afffff2 	beq	830c <main+0xa4>
/Users/winterji/Desktop/FAV/Navazujici/OS/semestralka-kiv-os/sources/userspace/logger_task/main.cpp:71
		{
			buf[v] = '\0';
    8340:	e24b2048 	sub	r2, fp, #72	; 0x48
    8344:	e51b3018 	ldr	r3, [fp, #-24]	; 0xffffffe8
    8348:	e0823003 	add	r3, r2, r3
    834c:	e3a02000 	mov	r2, #0
    8350:	e5c32000 	strb	r2, [r3]
/Users/winterji/Desktop/FAV/Navazujici/OS/semestralka-kiv-os/sources/userspace/logger_task/main.cpp:72
			fputs(uart_file, "\r\n[ ");
    8354:	e59f1060 	ldr	r1, [pc, #96]	; 83bc <main+0x154>
    8358:	e51b0008 	ldr	r0, [fp, #-8]
    835c:	ebffffb2 	bl	822c <_ZL5fputsjPKc>
/Users/winterji/Desktop/FAV/Navazujici/OS/semestralka-kiv-os/sources/userspace/logger_task/main.cpp:73
			uint32_t tick = get_tick_count();
    8360:	eb0000d5 	bl	86bc <_Z14get_tick_countv>
    8364:	e50b001c 	str	r0, [fp, #-28]	; 0xffffffe4
/Users/winterji/Desktop/FAV/Navazujici/OS/semestralka-kiv-os/sources/userspace/logger_task/main.cpp:74
			itoa(tick, tickbuf, 16);
    8368:	e24b30d8 	sub	r3, fp, #216	; 0xd8
    836c:	e3a02010 	mov	r2, #16
    8370:	e1a01003 	mov	r1, r3
    8374:	e51b001c 	ldr	r0, [fp, #-28]	; 0xffffffe4
    8378:	eb000128 	bl	8820 <_Z4itoajPcj>
/Users/winterji/Desktop/FAV/Navazujici/OS/semestralka-kiv-os/sources/userspace/logger_task/main.cpp:75
			fputs(uart_file, tickbuf);
    837c:	e24b30d8 	sub	r3, fp, #216	; 0xd8
    8380:	e1a01003 	mov	r1, r3
    8384:	e51b0008 	ldr	r0, [fp, #-8]
    8388:	ebffffa7 	bl	822c <_ZL5fputsjPKc>
/Users/winterji/Desktop/FAV/Navazujici/OS/semestralka-kiv-os/sources/userspace/logger_task/main.cpp:76
			fputs(uart_file, "]: ");
    838c:	e59f102c 	ldr	r1, [pc, #44]	; 83c0 <main+0x158>
    8390:	e51b0008 	ldr	r0, [fp, #-8]
    8394:	ebffffa4 	bl	822c <_ZL5fputsjPKc>
/Users/winterji/Desktop/FAV/Navazujici/OS/semestralka-kiv-os/sources/userspace/logger_task/main.cpp:77
			fputs(uart_file, buf);
    8398:	e24b3048 	sub	r3, fp, #72	; 0x48
    839c:	e1a01003 	mov	r1, r3
    83a0:	e51b0008 	ldr	r0, [fp, #-8]
    83a4:	ebffffa0 	bl	822c <_ZL5fputsjPKc>
/Users/winterji/Desktop/FAV/Navazujici/OS/semestralka-kiv-os/sources/userspace/logger_task/main.cpp:79
		}
	}
    83a8:	eaffffd7 	b	830c <main+0xa4>
    83ac:	0000921c 	andeq	r9, r0, ip, lsl r2
    83b0:	0001c200 	andeq	ip, r1, r0, lsl #4
    83b4:	00009228 	andeq	r9, r0, r8, lsr #4
    83b8:	00009240 	andeq	r9, r0, r0, asr #4
    83bc:	00009244 	andeq	r9, r0, r4, asr #4
    83c0:	0000924c 	andeq	r9, r0, ip, asr #4

000083c4 <_Z6getpidv>:
_Z6getpidv():
/Users/winterji/Desktop/FAV/Navazujici/OS/semestralka-kiv-os/sources/stdlib/src/stdfile.cpp:5
#include <stdfile.h>
#include <stdstring.h>

uint32_t getpid()
{
    83c4:	e52db004 	push	{fp}		; (str fp, [sp, #-4]!)
    83c8:	e28db000 	add	fp, sp, #0
    83cc:	e24dd00c 	sub	sp, sp, #12
/Users/winterji/Desktop/FAV/Navazujici/OS/semestralka-kiv-os/sources/stdlib/src/stdfile.cpp:8
    uint32_t pid;

    asm volatile("swi 0");
    83d0:	ef000000 	svc	0x00000000
/Users/winterji/Desktop/FAV/Navazujici/OS/semestralka-kiv-os/sources/stdlib/src/stdfile.cpp:9
    asm volatile("mov %0, r0" : "=r" (pid));
    83d4:	e1a03000 	mov	r3, r0
    83d8:	e50b3008 	str	r3, [fp, #-8]
/Users/winterji/Desktop/FAV/Navazujici/OS/semestralka-kiv-os/sources/stdlib/src/stdfile.cpp:11

    return pid;
    83dc:	e51b3008 	ldr	r3, [fp, #-8]
/Users/winterji/Desktop/FAV/Navazujici/OS/semestralka-kiv-os/sources/stdlib/src/stdfile.cpp:12
}
    83e0:	e1a00003 	mov	r0, r3
    83e4:	e28bd000 	add	sp, fp, #0
    83e8:	e49db004 	pop	{fp}		; (ldr fp, [sp], #4)
    83ec:	e12fff1e 	bx	lr

000083f0 <_Z9terminatei>:
_Z9terminatei():
/Users/winterji/Desktop/FAV/Navazujici/OS/semestralka-kiv-os/sources/stdlib/src/stdfile.cpp:15

void terminate(int exitcode)
{
    83f0:	e52db004 	push	{fp}		; (str fp, [sp, #-4]!)
    83f4:	e28db000 	add	fp, sp, #0
    83f8:	e24dd00c 	sub	sp, sp, #12
    83fc:	e50b0008 	str	r0, [fp, #-8]
/Users/winterji/Desktop/FAV/Navazujici/OS/semestralka-kiv-os/sources/stdlib/src/stdfile.cpp:16
    asm volatile("mov r0, %0" : : "r" (exitcode));
    8400:	e51b3008 	ldr	r3, [fp, #-8]
    8404:	e1a00003 	mov	r0, r3
/Users/winterji/Desktop/FAV/Navazujici/OS/semestralka-kiv-os/sources/stdlib/src/stdfile.cpp:17
    asm volatile("swi 1");
    8408:	ef000001 	svc	0x00000001
/Users/winterji/Desktop/FAV/Navazujici/OS/semestralka-kiv-os/sources/stdlib/src/stdfile.cpp:18
}
    840c:	e320f000 	nop	{0}
    8410:	e28bd000 	add	sp, fp, #0
    8414:	e49db004 	pop	{fp}		; (ldr fp, [sp], #4)
    8418:	e12fff1e 	bx	lr

0000841c <_Z11sched_yieldv>:
_Z11sched_yieldv():
/Users/winterji/Desktop/FAV/Navazujici/OS/semestralka-kiv-os/sources/stdlib/src/stdfile.cpp:21

void sched_yield()
{
    841c:	e52db004 	push	{fp}		; (str fp, [sp, #-4]!)
    8420:	e28db000 	add	fp, sp, #0
/Users/winterji/Desktop/FAV/Navazujici/OS/semestralka-kiv-os/sources/stdlib/src/stdfile.cpp:22
    asm volatile("swi 2");
    8424:	ef000002 	svc	0x00000002
/Users/winterji/Desktop/FAV/Navazujici/OS/semestralka-kiv-os/sources/stdlib/src/stdfile.cpp:23
}
    8428:	e320f000 	nop	{0}
    842c:	e28bd000 	add	sp, fp, #0
    8430:	e49db004 	pop	{fp}		; (ldr fp, [sp], #4)
    8434:	e12fff1e 	bx	lr

00008438 <_Z4openPKc15NFile_Open_Mode>:
_Z4openPKc15NFile_Open_Mode():
/Users/winterji/Desktop/FAV/Navazujici/OS/semestralka-kiv-os/sources/stdlib/src/stdfile.cpp:26

uint32_t open(const char* filename, NFile_Open_Mode mode)
{
    8438:	e52db004 	push	{fp}		; (str fp, [sp, #-4]!)
    843c:	e28db000 	add	fp, sp, #0
    8440:	e24dd014 	sub	sp, sp, #20
    8444:	e50b0010 	str	r0, [fp, #-16]
    8448:	e50b1014 	str	r1, [fp, #-20]	; 0xffffffec
/Users/winterji/Desktop/FAV/Navazujici/OS/semestralka-kiv-os/sources/stdlib/src/stdfile.cpp:29
    uint32_t file;

    asm volatile("mov r0, %0" : : "r" (filename));
    844c:	e51b3010 	ldr	r3, [fp, #-16]
    8450:	e1a00003 	mov	r0, r3
/Users/winterji/Desktop/FAV/Navazujici/OS/semestralka-kiv-os/sources/stdlib/src/stdfile.cpp:30
    asm volatile("mov r1, %0" : : "r" (mode));
    8454:	e51b3014 	ldr	r3, [fp, #-20]	; 0xffffffec
    8458:	e1a01003 	mov	r1, r3
/Users/winterji/Desktop/FAV/Navazujici/OS/semestralka-kiv-os/sources/stdlib/src/stdfile.cpp:31
    asm volatile("swi 64");
    845c:	ef000040 	svc	0x00000040
/Users/winterji/Desktop/FAV/Navazujici/OS/semestralka-kiv-os/sources/stdlib/src/stdfile.cpp:32
    asm volatile("mov %0, r0" : "=r" (file));
    8460:	e1a03000 	mov	r3, r0
    8464:	e50b3008 	str	r3, [fp, #-8]
/Users/winterji/Desktop/FAV/Navazujici/OS/semestralka-kiv-os/sources/stdlib/src/stdfile.cpp:33
    return file;
    8468:	e51b3008 	ldr	r3, [fp, #-8]
/Users/winterji/Desktop/FAV/Navazujici/OS/semestralka-kiv-os/sources/stdlib/src/stdfile.cpp:34
}
    846c:	e1a00003 	mov	r0, r3
    8470:	e28bd000 	add	sp, fp, #0
    8474:	e49db004 	pop	{fp}		; (ldr fp, [sp], #4)
    8478:	e12fff1e 	bx	lr

0000847c <_Z4readjPcj>:
_Z4readjPcj():
/Users/winterji/Desktop/FAV/Navazujici/OS/semestralka-kiv-os/sources/stdlib/src/stdfile.cpp:37

uint32_t read(uint32_t file, char* const buffer, uint32_t size)
{
    847c:	e52db004 	push	{fp}		; (str fp, [sp, #-4]!)
    8480:	e28db000 	add	fp, sp, #0
    8484:	e24dd01c 	sub	sp, sp, #28
    8488:	e50b0010 	str	r0, [fp, #-16]
    848c:	e50b1014 	str	r1, [fp, #-20]	; 0xffffffec
    8490:	e50b2018 	str	r2, [fp, #-24]	; 0xffffffe8
/Users/winterji/Desktop/FAV/Navazujici/OS/semestralka-kiv-os/sources/stdlib/src/stdfile.cpp:40
    uint32_t rdnum;

    asm volatile("mov r0, %0" : : "r" (file));
    8494:	e51b3010 	ldr	r3, [fp, #-16]
    8498:	e1a00003 	mov	r0, r3
/Users/winterji/Desktop/FAV/Navazujici/OS/semestralka-kiv-os/sources/stdlib/src/stdfile.cpp:41
    asm volatile("mov r1, %0" : : "r" (buffer));
    849c:	e51b3014 	ldr	r3, [fp, #-20]	; 0xffffffec
    84a0:	e1a01003 	mov	r1, r3
/Users/winterji/Desktop/FAV/Navazujici/OS/semestralka-kiv-os/sources/stdlib/src/stdfile.cpp:42
    asm volatile("mov r2, %0" : : "r" (size));
    84a4:	e51b3018 	ldr	r3, [fp, #-24]	; 0xffffffe8
    84a8:	e1a02003 	mov	r2, r3
/Users/winterji/Desktop/FAV/Navazujici/OS/semestralka-kiv-os/sources/stdlib/src/stdfile.cpp:43
    asm volatile("swi 65");
    84ac:	ef000041 	svc	0x00000041
/Users/winterji/Desktop/FAV/Navazujici/OS/semestralka-kiv-os/sources/stdlib/src/stdfile.cpp:44
    asm volatile("mov %0, r0" : "=r" (rdnum));
    84b0:	e1a03000 	mov	r3, r0
    84b4:	e50b3008 	str	r3, [fp, #-8]
/Users/winterji/Desktop/FAV/Navazujici/OS/semestralka-kiv-os/sources/stdlib/src/stdfile.cpp:46

    return rdnum;
    84b8:	e51b3008 	ldr	r3, [fp, #-8]
/Users/winterji/Desktop/FAV/Navazujici/OS/semestralka-kiv-os/sources/stdlib/src/stdfile.cpp:47
}
    84bc:	e1a00003 	mov	r0, r3
    84c0:	e28bd000 	add	sp, fp, #0
    84c4:	e49db004 	pop	{fp}		; (ldr fp, [sp], #4)
    84c8:	e12fff1e 	bx	lr

000084cc <_Z5writejPKcj>:
_Z5writejPKcj():
/Users/winterji/Desktop/FAV/Navazujici/OS/semestralka-kiv-os/sources/stdlib/src/stdfile.cpp:50

uint32_t write(uint32_t file, const char* buffer, uint32_t size)
{
    84cc:	e52db004 	push	{fp}		; (str fp, [sp, #-4]!)
    84d0:	e28db000 	add	fp, sp, #0
    84d4:	e24dd01c 	sub	sp, sp, #28
    84d8:	e50b0010 	str	r0, [fp, #-16]
    84dc:	e50b1014 	str	r1, [fp, #-20]	; 0xffffffec
    84e0:	e50b2018 	str	r2, [fp, #-24]	; 0xffffffe8
/Users/winterji/Desktop/FAV/Navazujici/OS/semestralka-kiv-os/sources/stdlib/src/stdfile.cpp:53
    uint32_t wrnum;

    asm volatile("mov r0, %0" : : "r" (file));
    84e4:	e51b3010 	ldr	r3, [fp, #-16]
    84e8:	e1a00003 	mov	r0, r3
/Users/winterji/Desktop/FAV/Navazujici/OS/semestralka-kiv-os/sources/stdlib/src/stdfile.cpp:54
    asm volatile("mov r1, %0" : : "r" (buffer));
    84ec:	e51b3014 	ldr	r3, [fp, #-20]	; 0xffffffec
    84f0:	e1a01003 	mov	r1, r3
/Users/winterji/Desktop/FAV/Navazujici/OS/semestralka-kiv-os/sources/stdlib/src/stdfile.cpp:55
    asm volatile("mov r2, %0" : : "r" (size));
    84f4:	e51b3018 	ldr	r3, [fp, #-24]	; 0xffffffe8
    84f8:	e1a02003 	mov	r2, r3
/Users/winterji/Desktop/FAV/Navazujici/OS/semestralka-kiv-os/sources/stdlib/src/stdfile.cpp:56
    asm volatile("swi 66");
    84fc:	ef000042 	svc	0x00000042
/Users/winterji/Desktop/FAV/Navazujici/OS/semestralka-kiv-os/sources/stdlib/src/stdfile.cpp:57
    asm volatile("mov %0, r0" : "=r" (wrnum));
    8500:	e1a03000 	mov	r3, r0
    8504:	e50b3008 	str	r3, [fp, #-8]
/Users/winterji/Desktop/FAV/Navazujici/OS/semestralka-kiv-os/sources/stdlib/src/stdfile.cpp:59

    return wrnum;
    8508:	e51b3008 	ldr	r3, [fp, #-8]
/Users/winterji/Desktop/FAV/Navazujici/OS/semestralka-kiv-os/sources/stdlib/src/stdfile.cpp:60
}
    850c:	e1a00003 	mov	r0, r3
    8510:	e28bd000 	add	sp, fp, #0
    8514:	e49db004 	pop	{fp}		; (ldr fp, [sp], #4)
    8518:	e12fff1e 	bx	lr

0000851c <_Z5closej>:
_Z5closej():
/Users/winterji/Desktop/FAV/Navazujici/OS/semestralka-kiv-os/sources/stdlib/src/stdfile.cpp:63

void close(uint32_t file)
{
    851c:	e52db004 	push	{fp}		; (str fp, [sp, #-4]!)
    8520:	e28db000 	add	fp, sp, #0
    8524:	e24dd00c 	sub	sp, sp, #12
    8528:	e50b0008 	str	r0, [fp, #-8]
/Users/winterji/Desktop/FAV/Navazujici/OS/semestralka-kiv-os/sources/stdlib/src/stdfile.cpp:64
    asm volatile("mov r0, %0" : : "r" (file));
    852c:	e51b3008 	ldr	r3, [fp, #-8]
    8530:	e1a00003 	mov	r0, r3
/Users/winterji/Desktop/FAV/Navazujici/OS/semestralka-kiv-os/sources/stdlib/src/stdfile.cpp:65
    asm volatile("swi 67");
    8534:	ef000043 	svc	0x00000043
/Users/winterji/Desktop/FAV/Navazujici/OS/semestralka-kiv-os/sources/stdlib/src/stdfile.cpp:66
}
    8538:	e320f000 	nop	{0}
    853c:	e28bd000 	add	sp, fp, #0
    8540:	e49db004 	pop	{fp}		; (ldr fp, [sp], #4)
    8544:	e12fff1e 	bx	lr

00008548 <_Z5ioctlj16NIOCtl_OperationPv>:
_Z5ioctlj16NIOCtl_OperationPv():
/Users/winterji/Desktop/FAV/Navazujici/OS/semestralka-kiv-os/sources/stdlib/src/stdfile.cpp:69

uint32_t ioctl(uint32_t file, NIOCtl_Operation operation, void* param)
{
    8548:	e52db004 	push	{fp}		; (str fp, [sp, #-4]!)
    854c:	e28db000 	add	fp, sp, #0
    8550:	e24dd01c 	sub	sp, sp, #28
    8554:	e50b0010 	str	r0, [fp, #-16]
    8558:	e50b1014 	str	r1, [fp, #-20]	; 0xffffffec
    855c:	e50b2018 	str	r2, [fp, #-24]	; 0xffffffe8
/Users/winterji/Desktop/FAV/Navazujici/OS/semestralka-kiv-os/sources/stdlib/src/stdfile.cpp:72
    uint32_t retcode;

    asm volatile("mov r0, %0" : : "r" (file));
    8560:	e51b3010 	ldr	r3, [fp, #-16]
    8564:	e1a00003 	mov	r0, r3
/Users/winterji/Desktop/FAV/Navazujici/OS/semestralka-kiv-os/sources/stdlib/src/stdfile.cpp:73
    asm volatile("mov r1, %0" : : "r" (operation));
    8568:	e51b3014 	ldr	r3, [fp, #-20]	; 0xffffffec
    856c:	e1a01003 	mov	r1, r3
/Users/winterji/Desktop/FAV/Navazujici/OS/semestralka-kiv-os/sources/stdlib/src/stdfile.cpp:74
    asm volatile("mov r2, %0" : : "r" (param));
    8570:	e51b3018 	ldr	r3, [fp, #-24]	; 0xffffffe8
    8574:	e1a02003 	mov	r2, r3
/Users/winterji/Desktop/FAV/Navazujici/OS/semestralka-kiv-os/sources/stdlib/src/stdfile.cpp:75
    asm volatile("swi 68");
    8578:	ef000044 	svc	0x00000044
/Users/winterji/Desktop/FAV/Navazujici/OS/semestralka-kiv-os/sources/stdlib/src/stdfile.cpp:76
    asm volatile("mov %0, r0" : "=r" (retcode));
    857c:	e1a03000 	mov	r3, r0
    8580:	e50b3008 	str	r3, [fp, #-8]
/Users/winterji/Desktop/FAV/Navazujici/OS/semestralka-kiv-os/sources/stdlib/src/stdfile.cpp:78

    return retcode;
    8584:	e51b3008 	ldr	r3, [fp, #-8]
/Users/winterji/Desktop/FAV/Navazujici/OS/semestralka-kiv-os/sources/stdlib/src/stdfile.cpp:79
}
    8588:	e1a00003 	mov	r0, r3
    858c:	e28bd000 	add	sp, fp, #0
    8590:	e49db004 	pop	{fp}		; (ldr fp, [sp], #4)
    8594:	e12fff1e 	bx	lr

00008598 <_Z6notifyjj>:
_Z6notifyjj():
/Users/winterji/Desktop/FAV/Navazujici/OS/semestralka-kiv-os/sources/stdlib/src/stdfile.cpp:82

uint32_t notify(uint32_t file, uint32_t count)
{
    8598:	e52db004 	push	{fp}		; (str fp, [sp, #-4]!)
    859c:	e28db000 	add	fp, sp, #0
    85a0:	e24dd014 	sub	sp, sp, #20
    85a4:	e50b0010 	str	r0, [fp, #-16]
    85a8:	e50b1014 	str	r1, [fp, #-20]	; 0xffffffec
/Users/winterji/Desktop/FAV/Navazujici/OS/semestralka-kiv-os/sources/stdlib/src/stdfile.cpp:85
    uint32_t retcnt;

    asm volatile("mov r0, %0" : : "r" (file));
    85ac:	e51b3010 	ldr	r3, [fp, #-16]
    85b0:	e1a00003 	mov	r0, r3
/Users/winterji/Desktop/FAV/Navazujici/OS/semestralka-kiv-os/sources/stdlib/src/stdfile.cpp:86
    asm volatile("mov r1, %0" : : "r" (count));
    85b4:	e51b3014 	ldr	r3, [fp, #-20]	; 0xffffffec
    85b8:	e1a01003 	mov	r1, r3
/Users/winterji/Desktop/FAV/Navazujici/OS/semestralka-kiv-os/sources/stdlib/src/stdfile.cpp:87
    asm volatile("swi 69");
    85bc:	ef000045 	svc	0x00000045
/Users/winterji/Desktop/FAV/Navazujici/OS/semestralka-kiv-os/sources/stdlib/src/stdfile.cpp:88
    asm volatile("mov %0, r0" : "=r" (retcnt));
    85c0:	e1a03000 	mov	r3, r0
    85c4:	e50b3008 	str	r3, [fp, #-8]
/Users/winterji/Desktop/FAV/Navazujici/OS/semestralka-kiv-os/sources/stdlib/src/stdfile.cpp:90

    return retcnt;
    85c8:	e51b3008 	ldr	r3, [fp, #-8]
/Users/winterji/Desktop/FAV/Navazujici/OS/semestralka-kiv-os/sources/stdlib/src/stdfile.cpp:91
}
    85cc:	e1a00003 	mov	r0, r3
    85d0:	e28bd000 	add	sp, fp, #0
    85d4:	e49db004 	pop	{fp}		; (ldr fp, [sp], #4)
    85d8:	e12fff1e 	bx	lr

000085dc <_Z4waitjjj>:
_Z4waitjjj():
/Users/winterji/Desktop/FAV/Navazujici/OS/semestralka-kiv-os/sources/stdlib/src/stdfile.cpp:94

NSWI_Result_Code wait(uint32_t file, uint32_t count, uint32_t notified_deadline)
{
    85dc:	e52db004 	push	{fp}		; (str fp, [sp, #-4]!)
    85e0:	e28db000 	add	fp, sp, #0
    85e4:	e24dd01c 	sub	sp, sp, #28
    85e8:	e50b0010 	str	r0, [fp, #-16]
    85ec:	e50b1014 	str	r1, [fp, #-20]	; 0xffffffec
    85f0:	e50b2018 	str	r2, [fp, #-24]	; 0xffffffe8
/Users/winterji/Desktop/FAV/Navazujici/OS/semestralka-kiv-os/sources/stdlib/src/stdfile.cpp:97
    NSWI_Result_Code retcode;

    asm volatile("mov r0, %0" : : "r" (file));
    85f4:	e51b3010 	ldr	r3, [fp, #-16]
    85f8:	e1a00003 	mov	r0, r3
/Users/winterji/Desktop/FAV/Navazujici/OS/semestralka-kiv-os/sources/stdlib/src/stdfile.cpp:98
    asm volatile("mov r1, %0" : : "r" (count));
    85fc:	e51b3014 	ldr	r3, [fp, #-20]	; 0xffffffec
    8600:	e1a01003 	mov	r1, r3
/Users/winterji/Desktop/FAV/Navazujici/OS/semestralka-kiv-os/sources/stdlib/src/stdfile.cpp:99
    asm volatile("mov r2, %0" : : "r" (notified_deadline));
    8604:	e51b3018 	ldr	r3, [fp, #-24]	; 0xffffffe8
    8608:	e1a02003 	mov	r2, r3
/Users/winterji/Desktop/FAV/Navazujici/OS/semestralka-kiv-os/sources/stdlib/src/stdfile.cpp:100
    asm volatile("swi 70");
    860c:	ef000046 	svc	0x00000046
/Users/winterji/Desktop/FAV/Navazujici/OS/semestralka-kiv-os/sources/stdlib/src/stdfile.cpp:101
    asm volatile("mov %0, r0" : "=r" (retcode));
    8610:	e1a03000 	mov	r3, r0
    8614:	e50b3008 	str	r3, [fp, #-8]
/Users/winterji/Desktop/FAV/Navazujici/OS/semestralka-kiv-os/sources/stdlib/src/stdfile.cpp:103

    return retcode;
    8618:	e51b3008 	ldr	r3, [fp, #-8]
/Users/winterji/Desktop/FAV/Navazujici/OS/semestralka-kiv-os/sources/stdlib/src/stdfile.cpp:104
}
    861c:	e1a00003 	mov	r0, r3
    8620:	e28bd000 	add	sp, fp, #0
    8624:	e49db004 	pop	{fp}		; (ldr fp, [sp], #4)
    8628:	e12fff1e 	bx	lr

0000862c <_Z5sleepjj>:
_Z5sleepjj():
/Users/winterji/Desktop/FAV/Navazujici/OS/semestralka-kiv-os/sources/stdlib/src/stdfile.cpp:107

bool sleep(uint32_t ticks, uint32_t notified_deadline)
{
    862c:	e52db004 	push	{fp}		; (str fp, [sp, #-4]!)
    8630:	e28db000 	add	fp, sp, #0
    8634:	e24dd014 	sub	sp, sp, #20
    8638:	e50b0010 	str	r0, [fp, #-16]
    863c:	e50b1014 	str	r1, [fp, #-20]	; 0xffffffec
/Users/winterji/Desktop/FAV/Navazujici/OS/semestralka-kiv-os/sources/stdlib/src/stdfile.cpp:110
    uint32_t retcode;

    asm volatile("mov r0, %0" : : "r" (ticks));
    8640:	e51b3010 	ldr	r3, [fp, #-16]
    8644:	e1a00003 	mov	r0, r3
/Users/winterji/Desktop/FAV/Navazujici/OS/semestralka-kiv-os/sources/stdlib/src/stdfile.cpp:111
    asm volatile("mov r1, %0" : : "r" (notified_deadline));
    8648:	e51b3014 	ldr	r3, [fp, #-20]	; 0xffffffec
    864c:	e1a01003 	mov	r1, r3
/Users/winterji/Desktop/FAV/Navazujici/OS/semestralka-kiv-os/sources/stdlib/src/stdfile.cpp:112
    asm volatile("swi 3");
    8650:	ef000003 	svc	0x00000003
/Users/winterji/Desktop/FAV/Navazujici/OS/semestralka-kiv-os/sources/stdlib/src/stdfile.cpp:113
    asm volatile("mov %0, r0" : "=r" (retcode));
    8654:	e1a03000 	mov	r3, r0
    8658:	e50b3008 	str	r3, [fp, #-8]
/Users/winterji/Desktop/FAV/Navazujici/OS/semestralka-kiv-os/sources/stdlib/src/stdfile.cpp:115

    return retcode;
    865c:	e51b3008 	ldr	r3, [fp, #-8]
    8660:	e3530000 	cmp	r3, #0
    8664:	13a03001 	movne	r3, #1
    8668:	03a03000 	moveq	r3, #0
    866c:	e6ef3073 	uxtb	r3, r3
/Users/winterji/Desktop/FAV/Navazujici/OS/semestralka-kiv-os/sources/stdlib/src/stdfile.cpp:116
}
    8670:	e1a00003 	mov	r0, r3
    8674:	e28bd000 	add	sp, fp, #0
    8678:	e49db004 	pop	{fp}		; (ldr fp, [sp], #4)
    867c:	e12fff1e 	bx	lr

00008680 <_Z24get_active_process_countv>:
_Z24get_active_process_countv():
/Users/winterji/Desktop/FAV/Navazujici/OS/semestralka-kiv-os/sources/stdlib/src/stdfile.cpp:119

uint32_t get_active_process_count()
{
    8680:	e52db004 	push	{fp}		; (str fp, [sp, #-4]!)
    8684:	e28db000 	add	fp, sp, #0
    8688:	e24dd00c 	sub	sp, sp, #12
/Users/winterji/Desktop/FAV/Navazujici/OS/semestralka-kiv-os/sources/stdlib/src/stdfile.cpp:120
    const NGet_Sched_Info_Type req = NGet_Sched_Info_Type::Active_Process_Count;
    868c:	e3a03000 	mov	r3, #0
    8690:	e50b3008 	str	r3, [fp, #-8]
/Users/winterji/Desktop/FAV/Navazujici/OS/semestralka-kiv-os/sources/stdlib/src/stdfile.cpp:123
    uint32_t retval;

    asm volatile("mov r0, %0" : : "r" (req));
    8694:	e3a03000 	mov	r3, #0
    8698:	e1a00003 	mov	r0, r3
/Users/winterji/Desktop/FAV/Navazujici/OS/semestralka-kiv-os/sources/stdlib/src/stdfile.cpp:124
    asm volatile("mov r1, %0" : : "r" (&retval));
    869c:	e24b300c 	sub	r3, fp, #12
    86a0:	e1a01003 	mov	r1, r3
/Users/winterji/Desktop/FAV/Navazujici/OS/semestralka-kiv-os/sources/stdlib/src/stdfile.cpp:125
    asm volatile("swi 4");
    86a4:	ef000004 	svc	0x00000004
/Users/winterji/Desktop/FAV/Navazujici/OS/semestralka-kiv-os/sources/stdlib/src/stdfile.cpp:127

    return retval;
    86a8:	e51b300c 	ldr	r3, [fp, #-12]
/Users/winterji/Desktop/FAV/Navazujici/OS/semestralka-kiv-os/sources/stdlib/src/stdfile.cpp:128
}
    86ac:	e1a00003 	mov	r0, r3
    86b0:	e28bd000 	add	sp, fp, #0
    86b4:	e49db004 	pop	{fp}		; (ldr fp, [sp], #4)
    86b8:	e12fff1e 	bx	lr

000086bc <_Z14get_tick_countv>:
_Z14get_tick_countv():
/Users/winterji/Desktop/FAV/Navazujici/OS/semestralka-kiv-os/sources/stdlib/src/stdfile.cpp:131

uint32_t get_tick_count()
{
    86bc:	e52db004 	push	{fp}		; (str fp, [sp, #-4]!)
    86c0:	e28db000 	add	fp, sp, #0
    86c4:	e24dd00c 	sub	sp, sp, #12
/Users/winterji/Desktop/FAV/Navazujici/OS/semestralka-kiv-os/sources/stdlib/src/stdfile.cpp:132
    const NGet_Sched_Info_Type req = NGet_Sched_Info_Type::Tick_Count;
    86c8:	e3a03001 	mov	r3, #1
    86cc:	e50b3008 	str	r3, [fp, #-8]
/Users/winterji/Desktop/FAV/Navazujici/OS/semestralka-kiv-os/sources/stdlib/src/stdfile.cpp:135
    uint32_t retval;

    asm volatile("mov r0, %0" : : "r" (req));
    86d0:	e3a03001 	mov	r3, #1
    86d4:	e1a00003 	mov	r0, r3
/Users/winterji/Desktop/FAV/Navazujici/OS/semestralka-kiv-os/sources/stdlib/src/stdfile.cpp:136
    asm volatile("mov r1, %0" : : "r" (&retval));
    86d8:	e24b300c 	sub	r3, fp, #12
    86dc:	e1a01003 	mov	r1, r3
/Users/winterji/Desktop/FAV/Navazujici/OS/semestralka-kiv-os/sources/stdlib/src/stdfile.cpp:137
    asm volatile("swi 4");
    86e0:	ef000004 	svc	0x00000004
/Users/winterji/Desktop/FAV/Navazujici/OS/semestralka-kiv-os/sources/stdlib/src/stdfile.cpp:139

    return retval;
    86e4:	e51b300c 	ldr	r3, [fp, #-12]
/Users/winterji/Desktop/FAV/Navazujici/OS/semestralka-kiv-os/sources/stdlib/src/stdfile.cpp:140
}
    86e8:	e1a00003 	mov	r0, r3
    86ec:	e28bd000 	add	sp, fp, #0
    86f0:	e49db004 	pop	{fp}		; (ldr fp, [sp], #4)
    86f4:	e12fff1e 	bx	lr

000086f8 <_Z17set_task_deadlinej>:
_Z17set_task_deadlinej():
/Users/winterji/Desktop/FAV/Navazujici/OS/semestralka-kiv-os/sources/stdlib/src/stdfile.cpp:143

void set_task_deadline(uint32_t tick_count_required)
{
    86f8:	e52db004 	push	{fp}		; (str fp, [sp, #-4]!)
    86fc:	e28db000 	add	fp, sp, #0
    8700:	e24dd014 	sub	sp, sp, #20
    8704:	e50b0010 	str	r0, [fp, #-16]
/Users/winterji/Desktop/FAV/Navazujici/OS/semestralka-kiv-os/sources/stdlib/src/stdfile.cpp:144
    const NDeadline_Subservice req = NDeadline_Subservice::Set_Relative;
    8708:	e3a03000 	mov	r3, #0
    870c:	e50b3008 	str	r3, [fp, #-8]
/Users/winterji/Desktop/FAV/Navazujici/OS/semestralka-kiv-os/sources/stdlib/src/stdfile.cpp:146

    asm volatile("mov r0, %0" : : "r" (req));
    8710:	e3a03000 	mov	r3, #0
    8714:	e1a00003 	mov	r0, r3
/Users/winterji/Desktop/FAV/Navazujici/OS/semestralka-kiv-os/sources/stdlib/src/stdfile.cpp:147
    asm volatile("mov r1, %0" : : "r" (&tick_count_required));
    8718:	e24b3010 	sub	r3, fp, #16
    871c:	e1a01003 	mov	r1, r3
/Users/winterji/Desktop/FAV/Navazujici/OS/semestralka-kiv-os/sources/stdlib/src/stdfile.cpp:148
    asm volatile("swi 5");
    8720:	ef000005 	svc	0x00000005
/Users/winterji/Desktop/FAV/Navazujici/OS/semestralka-kiv-os/sources/stdlib/src/stdfile.cpp:149
}
    8724:	e320f000 	nop	{0}
    8728:	e28bd000 	add	sp, fp, #0
    872c:	e49db004 	pop	{fp}		; (ldr fp, [sp], #4)
    8730:	e12fff1e 	bx	lr

00008734 <_Z26get_task_ticks_to_deadlinev>:
_Z26get_task_ticks_to_deadlinev():
/Users/winterji/Desktop/FAV/Navazujici/OS/semestralka-kiv-os/sources/stdlib/src/stdfile.cpp:152

uint32_t get_task_ticks_to_deadline()
{
    8734:	e52db004 	push	{fp}		; (str fp, [sp, #-4]!)
    8738:	e28db000 	add	fp, sp, #0
    873c:	e24dd00c 	sub	sp, sp, #12
/Users/winterji/Desktop/FAV/Navazujici/OS/semestralka-kiv-os/sources/stdlib/src/stdfile.cpp:153
    const NDeadline_Subservice req = NDeadline_Subservice::Get_Remaining;
    8740:	e3a03001 	mov	r3, #1
    8744:	e50b3008 	str	r3, [fp, #-8]
/Users/winterji/Desktop/FAV/Navazujici/OS/semestralka-kiv-os/sources/stdlib/src/stdfile.cpp:156
    uint32_t ticks;

    asm volatile("mov r0, %0" : : "r" (req));
    8748:	e3a03001 	mov	r3, #1
    874c:	e1a00003 	mov	r0, r3
/Users/winterji/Desktop/FAV/Navazujici/OS/semestralka-kiv-os/sources/stdlib/src/stdfile.cpp:157
    asm volatile("mov r1, %0" : : "r" (&ticks));
    8750:	e24b300c 	sub	r3, fp, #12
    8754:	e1a01003 	mov	r1, r3
/Users/winterji/Desktop/FAV/Navazujici/OS/semestralka-kiv-os/sources/stdlib/src/stdfile.cpp:158
    asm volatile("swi 5");
    8758:	ef000005 	svc	0x00000005
/Users/winterji/Desktop/FAV/Navazujici/OS/semestralka-kiv-os/sources/stdlib/src/stdfile.cpp:160

    return ticks;
    875c:	e51b300c 	ldr	r3, [fp, #-12]
/Users/winterji/Desktop/FAV/Navazujici/OS/semestralka-kiv-os/sources/stdlib/src/stdfile.cpp:161
}
    8760:	e1a00003 	mov	r0, r3
    8764:	e28bd000 	add	sp, fp, #0
    8768:	e49db004 	pop	{fp}		; (ldr fp, [sp], #4)
    876c:	e12fff1e 	bx	lr

00008770 <_Z4pipePKcj>:
_Z4pipePKcj():
/Users/winterji/Desktop/FAV/Navazujici/OS/semestralka-kiv-os/sources/stdlib/src/stdfile.cpp:166

const char Pipe_File_Prefix[] = "SYS:pipe/";

uint32_t pipe(const char* name, uint32_t buf_size)
{
    8770:	e92d4800 	push	{fp, lr}
    8774:	e28db004 	add	fp, sp, #4
    8778:	e24dd050 	sub	sp, sp, #80	; 0x50
    877c:	e50b0050 	str	r0, [fp, #-80]	; 0xffffffb0
    8780:	e50b1054 	str	r1, [fp, #-84]	; 0xffffffac
/Users/winterji/Desktop/FAV/Navazujici/OS/semestralka-kiv-os/sources/stdlib/src/stdfile.cpp:168
    char fname[64];
    strncpy(fname, Pipe_File_Prefix, sizeof(Pipe_File_Prefix));
    8784:	e24b3048 	sub	r3, fp, #72	; 0x48
    8788:	e3a0200a 	mov	r2, #10
    878c:	e59f1088 	ldr	r1, [pc, #136]	; 881c <_Z4pipePKcj+0xac>
    8790:	e1a00003 	mov	r0, r3
    8794:	eb00014a 	bl	8cc4 <_Z7strncpyPcPKci>
/Users/winterji/Desktop/FAV/Navazujici/OS/semestralka-kiv-os/sources/stdlib/src/stdfile.cpp:169
    strncpy(fname + sizeof(Pipe_File_Prefix), name, sizeof(fname) - sizeof(Pipe_File_Prefix) - 1);
    8798:	e24b3048 	sub	r3, fp, #72	; 0x48
    879c:	e283300a 	add	r3, r3, #10
    87a0:	e3a02035 	mov	r2, #53	; 0x35
    87a4:	e51b1050 	ldr	r1, [fp, #-80]	; 0xffffffb0
    87a8:	e1a00003 	mov	r0, r3
    87ac:	eb000144 	bl	8cc4 <_Z7strncpyPcPKci>
/Users/winterji/Desktop/FAV/Navazujici/OS/semestralka-kiv-os/sources/stdlib/src/stdfile.cpp:171

    int ncur = sizeof(Pipe_File_Prefix) + strlen(name);
    87b0:	e51b0050 	ldr	r0, [fp, #-80]	; 0xffffffb0
    87b4:	eb00019d 	bl	8e30 <_Z6strlenPKc>
    87b8:	e1a03000 	mov	r3, r0
    87bc:	e283300a 	add	r3, r3, #10
    87c0:	e50b3008 	str	r3, [fp, #-8]
/Users/winterji/Desktop/FAV/Navazujici/OS/semestralka-kiv-os/sources/stdlib/src/stdfile.cpp:173

    fname[ncur++] = '#';
    87c4:	e51b3008 	ldr	r3, [fp, #-8]
    87c8:	e2832001 	add	r2, r3, #1
    87cc:	e50b2008 	str	r2, [fp, #-8]
    87d0:	e2433004 	sub	r3, r3, #4
    87d4:	e083300b 	add	r3, r3, fp
    87d8:	e3a02023 	mov	r2, #35	; 0x23
    87dc:	e5432044 	strb	r2, [r3, #-68]	; 0xffffffbc
/Users/winterji/Desktop/FAV/Navazujici/OS/semestralka-kiv-os/sources/stdlib/src/stdfile.cpp:175

    itoa(buf_size, &fname[ncur], 10);
    87e0:	e24b2048 	sub	r2, fp, #72	; 0x48
    87e4:	e51b3008 	ldr	r3, [fp, #-8]
    87e8:	e0823003 	add	r3, r2, r3
    87ec:	e3a0200a 	mov	r2, #10
    87f0:	e1a01003 	mov	r1, r3
    87f4:	e51b0054 	ldr	r0, [fp, #-84]	; 0xffffffac
    87f8:	eb000008 	bl	8820 <_Z4itoajPcj>
/Users/winterji/Desktop/FAV/Navazujici/OS/semestralka-kiv-os/sources/stdlib/src/stdfile.cpp:177

    return open(fname, NFile_Open_Mode::Read_Write);
    87fc:	e24b3048 	sub	r3, fp, #72	; 0x48
    8800:	e3a01002 	mov	r1, #2
    8804:	e1a00003 	mov	r0, r3
    8808:	ebffff0a 	bl	8438 <_Z4openPKc15NFile_Open_Mode>
    880c:	e1a03000 	mov	r3, r0
/Users/winterji/Desktop/FAV/Navazujici/OS/semestralka-kiv-os/sources/stdlib/src/stdfile.cpp:178
}
    8810:	e1a00003 	mov	r0, r3
    8814:	e24bd004 	sub	sp, fp, #4
    8818:	e8bd8800 	pop	{fp, pc}
    881c:	0000927c 	andeq	r9, r0, ip, ror r2

00008820 <_Z4itoajPcj>:
_Z4itoajPcj():
/Users/winterji/Desktop/FAV/Navazujici/OS/semestralka-kiv-os/sources/stdlib/src/stdstring.cpp:9
{
    const char CharConvArr[] = "0123456789ABCDEF";
}

void itoa(unsigned int input, char* output, unsigned int base)
{
    8820:	e92d4800 	push	{fp, lr}
    8824:	e28db004 	add	fp, sp, #4
    8828:	e24dd020 	sub	sp, sp, #32
    882c:	e50b0018 	str	r0, [fp, #-24]	; 0xffffffe8
    8830:	e50b101c 	str	r1, [fp, #-28]	; 0xffffffe4
    8834:	e50b2020 	str	r2, [fp, #-32]	; 0xffffffe0
/Users/winterji/Desktop/FAV/Navazujici/OS/semestralka-kiv-os/sources/stdlib/src/stdstring.cpp:10
	int i = 0;
    8838:	e3a03000 	mov	r3, #0
    883c:	e50b3008 	str	r3, [fp, #-8]
/Users/winterji/Desktop/FAV/Navazujici/OS/semestralka-kiv-os/sources/stdlib/src/stdstring.cpp:12

	while (input > 0)
    8840:	e51b3018 	ldr	r3, [fp, #-24]	; 0xffffffe8
    8844:	e3530000 	cmp	r3, #0
    8848:	0a000014 	beq	88a0 <_Z4itoajPcj+0x80>
/Users/winterji/Desktop/FAV/Navazujici/OS/semestralka-kiv-os/sources/stdlib/src/stdstring.cpp:14
	{
		output[i] = CharConvArr[input % base];
    884c:	e51b3018 	ldr	r3, [fp, #-24]	; 0xffffffe8
    8850:	e51b1020 	ldr	r1, [fp, #-32]	; 0xffffffe0
    8854:	e1a00003 	mov	r0, r3
    8858:	eb00025b 	bl	91cc <__aeabi_uidivmod>
    885c:	e1a03001 	mov	r3, r1
    8860:	e1a01003 	mov	r1, r3
    8864:	e51b3008 	ldr	r3, [fp, #-8]
    8868:	e51b201c 	ldr	r2, [fp, #-28]	; 0xffffffe4
    886c:	e0823003 	add	r3, r2, r3
    8870:	e59f2118 	ldr	r2, [pc, #280]	; 8990 <_Z4itoajPcj+0x170>
    8874:	e7d22001 	ldrb	r2, [r2, r1]
    8878:	e5c32000 	strb	r2, [r3]
/Users/winterji/Desktop/FAV/Navazujici/OS/semestralka-kiv-os/sources/stdlib/src/stdstring.cpp:15
		input /= base;
    887c:	e51b1020 	ldr	r1, [fp, #-32]	; 0xffffffe0
    8880:	e51b0018 	ldr	r0, [fp, #-24]	; 0xffffffe8
    8884:	eb0001d5 	bl	8fe0 <__udivsi3>
    8888:	e1a03000 	mov	r3, r0
    888c:	e50b3018 	str	r3, [fp, #-24]	; 0xffffffe8
/Users/winterji/Desktop/FAV/Navazujici/OS/semestralka-kiv-os/sources/stdlib/src/stdstring.cpp:16
		i++;
    8890:	e51b3008 	ldr	r3, [fp, #-8]
    8894:	e2833001 	add	r3, r3, #1
    8898:	e50b3008 	str	r3, [fp, #-8]
/Users/winterji/Desktop/FAV/Navazujici/OS/semestralka-kiv-os/sources/stdlib/src/stdstring.cpp:12
	while (input > 0)
    889c:	eaffffe7 	b	8840 <_Z4itoajPcj+0x20>
/Users/winterji/Desktop/FAV/Navazujici/OS/semestralka-kiv-os/sources/stdlib/src/stdstring.cpp:19
	}

    if (i == 0)
    88a0:	e51b3008 	ldr	r3, [fp, #-8]
    88a4:	e3530000 	cmp	r3, #0
    88a8:	1a000007 	bne	88cc <_Z4itoajPcj+0xac>
/Users/winterji/Desktop/FAV/Navazujici/OS/semestralka-kiv-os/sources/stdlib/src/stdstring.cpp:21
    {
        output[i] = CharConvArr[0];
    88ac:	e51b3008 	ldr	r3, [fp, #-8]
    88b0:	e51b201c 	ldr	r2, [fp, #-28]	; 0xffffffe4
    88b4:	e0823003 	add	r3, r2, r3
    88b8:	e3a02030 	mov	r2, #48	; 0x30
    88bc:	e5c32000 	strb	r2, [r3]
/Users/winterji/Desktop/FAV/Navazujici/OS/semestralka-kiv-os/sources/stdlib/src/stdstring.cpp:22
        i++;
    88c0:	e51b3008 	ldr	r3, [fp, #-8]
    88c4:	e2833001 	add	r3, r3, #1
    88c8:	e50b3008 	str	r3, [fp, #-8]
/Users/winterji/Desktop/FAV/Navazujici/OS/semestralka-kiv-os/sources/stdlib/src/stdstring.cpp:25
    }

	output[i] = '\0';
    88cc:	e51b3008 	ldr	r3, [fp, #-8]
    88d0:	e51b201c 	ldr	r2, [fp, #-28]	; 0xffffffe4
    88d4:	e0823003 	add	r3, r2, r3
    88d8:	e3a02000 	mov	r2, #0
    88dc:	e5c32000 	strb	r2, [r3]
/Users/winterji/Desktop/FAV/Navazujici/OS/semestralka-kiv-os/sources/stdlib/src/stdstring.cpp:26
	i--;
    88e0:	e51b3008 	ldr	r3, [fp, #-8]
    88e4:	e2433001 	sub	r3, r3, #1
    88e8:	e50b3008 	str	r3, [fp, #-8]
/Users/winterji/Desktop/FAV/Navazujici/OS/semestralka-kiv-os/sources/stdlib/src/stdstring.cpp:28

	for (int j = 0; j <= i/2; j++)
    88ec:	e3a03000 	mov	r3, #0
    88f0:	e50b300c 	str	r3, [fp, #-12]
/Users/winterji/Desktop/FAV/Navazujici/OS/semestralka-kiv-os/sources/stdlib/src/stdstring.cpp:28 (discriminator 3)
    88f4:	e51b3008 	ldr	r3, [fp, #-8]
    88f8:	e1a02fa3 	lsr	r2, r3, #31
    88fc:	e0823003 	add	r3, r2, r3
    8900:	e1a030c3 	asr	r3, r3, #1
    8904:	e1a02003 	mov	r2, r3
    8908:	e51b300c 	ldr	r3, [fp, #-12]
    890c:	e1530002 	cmp	r3, r2
    8910:	ca00001b 	bgt	8984 <_Z4itoajPcj+0x164>
/Users/winterji/Desktop/FAV/Navazujici/OS/semestralka-kiv-os/sources/stdlib/src/stdstring.cpp:30 (discriminator 2)
	{
		char c = output[i - j];
    8914:	e51b2008 	ldr	r2, [fp, #-8]
    8918:	e51b300c 	ldr	r3, [fp, #-12]
    891c:	e0423003 	sub	r3, r2, r3
    8920:	e1a02003 	mov	r2, r3
    8924:	e51b301c 	ldr	r3, [fp, #-28]	; 0xffffffe4
    8928:	e0833002 	add	r3, r3, r2
    892c:	e5d33000 	ldrb	r3, [r3]
    8930:	e54b300d 	strb	r3, [fp, #-13]
/Users/winterji/Desktop/FAV/Navazujici/OS/semestralka-kiv-os/sources/stdlib/src/stdstring.cpp:31 (discriminator 2)
		output[i - j] = output[j];
    8934:	e51b300c 	ldr	r3, [fp, #-12]
    8938:	e51b201c 	ldr	r2, [fp, #-28]	; 0xffffffe4
    893c:	e0822003 	add	r2, r2, r3
    8940:	e51b1008 	ldr	r1, [fp, #-8]
    8944:	e51b300c 	ldr	r3, [fp, #-12]
    8948:	e0413003 	sub	r3, r1, r3
    894c:	e1a01003 	mov	r1, r3
    8950:	e51b301c 	ldr	r3, [fp, #-28]	; 0xffffffe4
    8954:	e0833001 	add	r3, r3, r1
    8958:	e5d22000 	ldrb	r2, [r2]
    895c:	e5c32000 	strb	r2, [r3]
/Users/winterji/Desktop/FAV/Navazujici/OS/semestralka-kiv-os/sources/stdlib/src/stdstring.cpp:32 (discriminator 2)
		output[j] = c;
    8960:	e51b300c 	ldr	r3, [fp, #-12]
    8964:	e51b201c 	ldr	r2, [fp, #-28]	; 0xffffffe4
    8968:	e0823003 	add	r3, r2, r3
    896c:	e55b200d 	ldrb	r2, [fp, #-13]
    8970:	e5c32000 	strb	r2, [r3]
/Users/winterji/Desktop/FAV/Navazujici/OS/semestralka-kiv-os/sources/stdlib/src/stdstring.cpp:28 (discriminator 2)
	for (int j = 0; j <= i/2; j++)
    8974:	e51b300c 	ldr	r3, [fp, #-12]
    8978:	e2833001 	add	r3, r3, #1
    897c:	e50b300c 	str	r3, [fp, #-12]
    8980:	eaffffdb 	b	88f4 <_Z4itoajPcj+0xd4>
/Users/winterji/Desktop/FAV/Navazujici/OS/semestralka-kiv-os/sources/stdlib/src/stdstring.cpp:34
	}
}
    8984:	e320f000 	nop	{0}
    8988:	e24bd004 	sub	sp, fp, #4
    898c:	e8bd8800 	pop	{fp, pc}
    8990:	00009288 	andeq	r9, r0, r8, lsl #5

00008994 <_Z4atoiPKc>:
_Z4atoiPKc():
/Users/winterji/Desktop/FAV/Navazujici/OS/semestralka-kiv-os/sources/stdlib/src/stdstring.cpp:37

int atoi(const char* input)
{
    8994:	e52db004 	push	{fp}		; (str fp, [sp, #-4]!)
    8998:	e28db000 	add	fp, sp, #0
    899c:	e24dd014 	sub	sp, sp, #20
    89a0:	e50b0010 	str	r0, [fp, #-16]
/Users/winterji/Desktop/FAV/Navazujici/OS/semestralka-kiv-os/sources/stdlib/src/stdstring.cpp:38
	int output = 0;
    89a4:	e3a03000 	mov	r3, #0
    89a8:	e50b3008 	str	r3, [fp, #-8]
/Users/winterji/Desktop/FAV/Navazujici/OS/semestralka-kiv-os/sources/stdlib/src/stdstring.cpp:40

	while (*input != '\0')
    89ac:	e51b3010 	ldr	r3, [fp, #-16]
    89b0:	e5d33000 	ldrb	r3, [r3]
    89b4:	e3530000 	cmp	r3, #0
    89b8:	0a000017 	beq	8a1c <_Z4atoiPKc+0x88>
/Users/winterji/Desktop/FAV/Navazujici/OS/semestralka-kiv-os/sources/stdlib/src/stdstring.cpp:42
	{
		output *= 10;
    89bc:	e51b2008 	ldr	r2, [fp, #-8]
    89c0:	e1a03002 	mov	r3, r2
    89c4:	e1a03103 	lsl	r3, r3, #2
    89c8:	e0833002 	add	r3, r3, r2
    89cc:	e1a03083 	lsl	r3, r3, #1
    89d0:	e50b3008 	str	r3, [fp, #-8]
/Users/winterji/Desktop/FAV/Navazujici/OS/semestralka-kiv-os/sources/stdlib/src/stdstring.cpp:43
		if (*input > '9' || *input < '0')
    89d4:	e51b3010 	ldr	r3, [fp, #-16]
    89d8:	e5d33000 	ldrb	r3, [r3]
    89dc:	e3530039 	cmp	r3, #57	; 0x39
    89e0:	8a00000d 	bhi	8a1c <_Z4atoiPKc+0x88>
/Users/winterji/Desktop/FAV/Navazujici/OS/semestralka-kiv-os/sources/stdlib/src/stdstring.cpp:43 (discriminator 1)
    89e4:	e51b3010 	ldr	r3, [fp, #-16]
    89e8:	e5d33000 	ldrb	r3, [r3]
    89ec:	e353002f 	cmp	r3, #47	; 0x2f
    89f0:	9a000009 	bls	8a1c <_Z4atoiPKc+0x88>
/Users/winterji/Desktop/FAV/Navazujici/OS/semestralka-kiv-os/sources/stdlib/src/stdstring.cpp:46
			break;

		output += *input - '0';
    89f4:	e51b3010 	ldr	r3, [fp, #-16]
    89f8:	e5d33000 	ldrb	r3, [r3]
    89fc:	e2433030 	sub	r3, r3, #48	; 0x30
    8a00:	e51b2008 	ldr	r2, [fp, #-8]
    8a04:	e0823003 	add	r3, r2, r3
    8a08:	e50b3008 	str	r3, [fp, #-8]
/Users/winterji/Desktop/FAV/Navazujici/OS/semestralka-kiv-os/sources/stdlib/src/stdstring.cpp:48

		input++;
    8a0c:	e51b3010 	ldr	r3, [fp, #-16]
    8a10:	e2833001 	add	r3, r3, #1
    8a14:	e50b3010 	str	r3, [fp, #-16]
/Users/winterji/Desktop/FAV/Navazujici/OS/semestralka-kiv-os/sources/stdlib/src/stdstring.cpp:40
	while (*input != '\0')
    8a18:	eaffffe3 	b	89ac <_Z4atoiPKc+0x18>
/Users/winterji/Desktop/FAV/Navazujici/OS/semestralka-kiv-os/sources/stdlib/src/stdstring.cpp:51
	}

	return output;
    8a1c:	e51b3008 	ldr	r3, [fp, #-8]
/Users/winterji/Desktop/FAV/Navazujici/OS/semestralka-kiv-os/sources/stdlib/src/stdstring.cpp:52
}
    8a20:	e1a00003 	mov	r0, r3
    8a24:	e28bd000 	add	sp, fp, #0
    8a28:	e49db004 	pop	{fp}		; (ldr fp, [sp], #4)
    8a2c:	e12fff1e 	bx	lr

00008a30 <_Z4ftoafPcj>:
_Z4ftoafPcj():
/Users/winterji/Desktop/FAV/Navazujici/OS/semestralka-kiv-os/sources/stdlib/src/stdstring.cpp:55

char* ftoa(float input, char* output, unsigned int decimal_places)
{
    8a30:	e52db004 	push	{fp}		; (str fp, [sp, #-4]!)
    8a34:	e28db000 	add	fp, sp, #0
    8a38:	e24dd03c 	sub	sp, sp, #60	; 0x3c
    8a3c:	ed0b0a0c 	vstr	s0, [fp, #-48]	; 0xffffffd0
    8a40:	e50b0034 	str	r0, [fp, #-52]	; 0xffffffcc
    8a44:	e50b1038 	str	r1, [fp, #-56]	; 0xffffffc8
/Users/winterji/Desktop/FAV/Navazujici/OS/semestralka-kiv-os/sources/stdlib/src/stdstring.cpp:56
	char* ptr = output;
    8a48:	e51b3034 	ldr	r3, [fp, #-52]	; 0xffffffcc
    8a4c:	e50b3008 	str	r3, [fp, #-8]
/Users/winterji/Desktop/FAV/Navazujici/OS/semestralka-kiv-os/sources/stdlib/src/stdstring.cpp:59

    // Handle negative numbers
    if (input < 0) {
    8a50:	ed5b7a0c 	vldr	s15, [fp, #-48]	; 0xffffffd0
    8a54:	eef57ac0 	vcmpe.f32	s15, #0.0
    8a58:	eef1fa10 	vmrs	APSR_nzcv, fpscr
    8a5c:	5a000007 	bpl	8a80 <_Z4ftoafPcj+0x50>
/Users/winterji/Desktop/FAV/Navazujici/OS/semestralka-kiv-os/sources/stdlib/src/stdstring.cpp:60
        *ptr++ = '-';
    8a60:	e51b3008 	ldr	r3, [fp, #-8]
    8a64:	e2832001 	add	r2, r3, #1
    8a68:	e50b2008 	str	r2, [fp, #-8]
    8a6c:	e3a0202d 	mov	r2, #45	; 0x2d
    8a70:	e5c32000 	strb	r2, [r3]
/Users/winterji/Desktop/FAV/Navazujici/OS/semestralka-kiv-os/sources/stdlib/src/stdstring.cpp:61
        input = -input;
    8a74:	ed5b7a0c 	vldr	s15, [fp, #-48]	; 0xffffffd0
    8a78:	eef17a67 	vneg.f32	s15, s15
    8a7c:	ed4b7a0c 	vstr	s15, [fp, #-48]	; 0xffffffd0
/Users/winterji/Desktop/FAV/Navazujici/OS/semestralka-kiv-os/sources/stdlib/src/stdstring.cpp:65
    }

    // Extract the integer part
    int int_part = (int)input;
    8a80:	ed5b7a0c 	vldr	s15, [fp, #-48]	; 0xffffffd0
    8a84:	eefd7ae7 	vcvt.s32.f32	s15, s15
    8a88:	ee173a90 	vmov	r3, s15
    8a8c:	e50b300c 	str	r3, [fp, #-12]
/Users/winterji/Desktop/FAV/Navazujici/OS/semestralka-kiv-os/sources/stdlib/src/stdstring.cpp:66
    float fraction = input - int_part;
    8a90:	e51b300c 	ldr	r3, [fp, #-12]
    8a94:	ee073a90 	vmov	s15, r3
    8a98:	eef87ae7 	vcvt.f32.s32	s15, s15
    8a9c:	ed1b7a0c 	vldr	s14, [fp, #-48]	; 0xffffffd0
    8aa0:	ee777a67 	vsub.f32	s15, s14, s15
    8aa4:	ed4b7a04 	vstr	s15, [fp, #-16]
/Users/winterji/Desktop/FAV/Navazujici/OS/semestralka-kiv-os/sources/stdlib/src/stdstring.cpp:70

    // Convert the integer part to a string
    char int_str[12]; // Temporary buffer for the integer part
    char* int_ptr = int_str;
    8aa8:	e24b302c 	sub	r3, fp, #44	; 0x2c
    8aac:	e50b3014 	str	r3, [fp, #-20]	; 0xffffffec
/Users/winterji/Desktop/FAV/Navazujici/OS/semestralka-kiv-os/sources/stdlib/src/stdstring.cpp:71
    if (int_part == 0) {
    8ab0:	e51b300c 	ldr	r3, [fp, #-12]
    8ab4:	e3530000 	cmp	r3, #0
    8ab8:	1a000005 	bne	8ad4 <_Z4ftoafPcj+0xa4>
/Users/winterji/Desktop/FAV/Navazujici/OS/semestralka-kiv-os/sources/stdlib/src/stdstring.cpp:72
        *int_ptr++ = '0';
    8abc:	e51b3014 	ldr	r3, [fp, #-20]	; 0xffffffec
    8ac0:	e2832001 	add	r2, r3, #1
    8ac4:	e50b2014 	str	r2, [fp, #-20]	; 0xffffffec
    8ac8:	e3a02030 	mov	r2, #48	; 0x30
    8acc:	e5c32000 	strb	r2, [r3]
    8ad0:	ea00001c 	b	8b48 <_Z4ftoafPcj+0x118>
/Users/winterji/Desktop/FAV/Navazujici/OS/semestralka-kiv-os/sources/stdlib/src/stdstring.cpp:74
    } else {
        while (int_part > 0) {
    8ad4:	e51b300c 	ldr	r3, [fp, #-12]
    8ad8:	e3530000 	cmp	r3, #0
    8adc:	da000019 	ble	8b48 <_Z4ftoafPcj+0x118>
/Users/winterji/Desktop/FAV/Navazujici/OS/semestralka-kiv-os/sources/stdlib/src/stdstring.cpp:75
            *int_ptr++ = '0' + (int_part % 10);
    8ae0:	e51b200c 	ldr	r2, [fp, #-12]
    8ae4:	e59f31d4 	ldr	r3, [pc, #468]	; 8cc0 <_Z4ftoafPcj+0x290>
    8ae8:	e0c31293 	smull	r1, r3, r3, r2
    8aec:	e1a01143 	asr	r1, r3, #2
    8af0:	e1a03fc2 	asr	r3, r2, #31
    8af4:	e0411003 	sub	r1, r1, r3
    8af8:	e1a03001 	mov	r3, r1
    8afc:	e1a03103 	lsl	r3, r3, #2
    8b00:	e0833001 	add	r3, r3, r1
    8b04:	e1a03083 	lsl	r3, r3, #1
    8b08:	e0421003 	sub	r1, r2, r3
    8b0c:	e6ef2071 	uxtb	r2, r1
    8b10:	e51b3014 	ldr	r3, [fp, #-20]	; 0xffffffec
    8b14:	e2831001 	add	r1, r3, #1
    8b18:	e50b1014 	str	r1, [fp, #-20]	; 0xffffffec
    8b1c:	e2822030 	add	r2, r2, #48	; 0x30
    8b20:	e6ef2072 	uxtb	r2, r2
    8b24:	e5c32000 	strb	r2, [r3]
/Users/winterji/Desktop/FAV/Navazujici/OS/semestralka-kiv-os/sources/stdlib/src/stdstring.cpp:76
            int_part /= 10;
    8b28:	e51b300c 	ldr	r3, [fp, #-12]
    8b2c:	e59f218c 	ldr	r2, [pc, #396]	; 8cc0 <_Z4ftoafPcj+0x290>
    8b30:	e0c21392 	smull	r1, r2, r2, r3
    8b34:	e1a02142 	asr	r2, r2, #2
    8b38:	e1a03fc3 	asr	r3, r3, #31
    8b3c:	e0423003 	sub	r3, r2, r3
    8b40:	e50b300c 	str	r3, [fp, #-12]
/Users/winterji/Desktop/FAV/Navazujici/OS/semestralka-kiv-os/sources/stdlib/src/stdstring.cpp:74
        while (int_part > 0) {
    8b44:	eaffffe2 	b	8ad4 <_Z4ftoafPcj+0xa4>
/Users/winterji/Desktop/FAV/Navazujici/OS/semestralka-kiv-os/sources/stdlib/src/stdstring.cpp:81
        }
    }

    // Reverse the integer part string and write to buffer
    while (int_ptr != int_str) {
    8b48:	e24b302c 	sub	r3, fp, #44	; 0x2c
    8b4c:	e51b2014 	ldr	r2, [fp, #-20]	; 0xffffffec
    8b50:	e1520003 	cmp	r2, r3
    8b54:	0a000009 	beq	8b80 <_Z4ftoafPcj+0x150>
/Users/winterji/Desktop/FAV/Navazujici/OS/semestralka-kiv-os/sources/stdlib/src/stdstring.cpp:82
        *ptr++ = *(--int_ptr);
    8b58:	e51b3014 	ldr	r3, [fp, #-20]	; 0xffffffec
    8b5c:	e2433001 	sub	r3, r3, #1
    8b60:	e50b3014 	str	r3, [fp, #-20]	; 0xffffffec
    8b64:	e51b3008 	ldr	r3, [fp, #-8]
    8b68:	e2832001 	add	r2, r3, #1
    8b6c:	e50b2008 	str	r2, [fp, #-8]
    8b70:	e51b2014 	ldr	r2, [fp, #-20]	; 0xffffffec
    8b74:	e5d22000 	ldrb	r2, [r2]
    8b78:	e5c32000 	strb	r2, [r3]
/Users/winterji/Desktop/FAV/Navazujici/OS/semestralka-kiv-os/sources/stdlib/src/stdstring.cpp:81
    while (int_ptr != int_str) {
    8b7c:	eafffff1 	b	8b48 <_Z4ftoafPcj+0x118>
/Users/winterji/Desktop/FAV/Navazujici/OS/semestralka-kiv-os/sources/stdlib/src/stdstring.cpp:86
    }

    // Add the decimal point
    if (decimal_places > 0) {
    8b80:	e51b3038 	ldr	r3, [fp, #-56]	; 0xffffffc8
    8b84:	e3530000 	cmp	r3, #0
    8b88:	0a000004 	beq	8ba0 <_Z4ftoafPcj+0x170>
/Users/winterji/Desktop/FAV/Navazujici/OS/semestralka-kiv-os/sources/stdlib/src/stdstring.cpp:87
        *ptr++ = '.';
    8b8c:	e51b3008 	ldr	r3, [fp, #-8]
    8b90:	e2832001 	add	r2, r3, #1
    8b94:	e50b2008 	str	r2, [fp, #-8]
    8b98:	e3a0202e 	mov	r2, #46	; 0x2e
    8b9c:	e5c32000 	strb	r2, [r3]
/Users/winterji/Desktop/FAV/Navazujici/OS/semestralka-kiv-os/sources/stdlib/src/stdstring.cpp:91
    }

    // Convert the fractional part to the specified number of decimal places
    for (int i = 0; i < decimal_places; i++) {
    8ba0:	e3a03000 	mov	r3, #0
    8ba4:	e50b3018 	str	r3, [fp, #-24]	; 0xffffffe8
/Users/winterji/Desktop/FAV/Navazujici/OS/semestralka-kiv-os/sources/stdlib/src/stdstring.cpp:91 (discriminator 3)
    8ba8:	e51b3018 	ldr	r3, [fp, #-24]	; 0xffffffe8
    8bac:	e51b2038 	ldr	r2, [fp, #-56]	; 0xffffffc8
    8bb0:	e1520003 	cmp	r2, r3
    8bb4:	9a000019 	bls	8c20 <_Z4ftoafPcj+0x1f0>
/Users/winterji/Desktop/FAV/Navazujici/OS/semestralka-kiv-os/sources/stdlib/src/stdstring.cpp:92 (discriminator 2)
        fraction *= 10;
    8bb8:	ed5b7a04 	vldr	s15, [fp, #-16]
    8bbc:	ed9f7a3e 	vldr	s14, [pc, #248]	; 8cbc <_Z4ftoafPcj+0x28c>
    8bc0:	ee677a87 	vmul.f32	s15, s15, s14
    8bc4:	ed4b7a04 	vstr	s15, [fp, #-16]
/Users/winterji/Desktop/FAV/Navazujici/OS/semestralka-kiv-os/sources/stdlib/src/stdstring.cpp:93 (discriminator 2)
        int digit = (int)fraction;
    8bc8:	ed5b7a04 	vldr	s15, [fp, #-16]
    8bcc:	eefd7ae7 	vcvt.s32.f32	s15, s15
    8bd0:	ee173a90 	vmov	r3, s15
    8bd4:	e50b3020 	str	r3, [fp, #-32]	; 0xffffffe0
/Users/winterji/Desktop/FAV/Navazujici/OS/semestralka-kiv-os/sources/stdlib/src/stdstring.cpp:94 (discriminator 2)
        *ptr++ = '0' + digit;
    8bd8:	e51b3020 	ldr	r3, [fp, #-32]	; 0xffffffe0
    8bdc:	e6ef2073 	uxtb	r2, r3
    8be0:	e51b3008 	ldr	r3, [fp, #-8]
    8be4:	e2831001 	add	r1, r3, #1
    8be8:	e50b1008 	str	r1, [fp, #-8]
    8bec:	e2822030 	add	r2, r2, #48	; 0x30
    8bf0:	e6ef2072 	uxtb	r2, r2
    8bf4:	e5c32000 	strb	r2, [r3]
/Users/winterji/Desktop/FAV/Navazujici/OS/semestralka-kiv-os/sources/stdlib/src/stdstring.cpp:95 (discriminator 2)
        fraction -= digit;
    8bf8:	e51b3020 	ldr	r3, [fp, #-32]	; 0xffffffe0
    8bfc:	ee073a90 	vmov	s15, r3
    8c00:	eef87ae7 	vcvt.f32.s32	s15, s15
    8c04:	ed1b7a04 	vldr	s14, [fp, #-16]
    8c08:	ee777a67 	vsub.f32	s15, s14, s15
    8c0c:	ed4b7a04 	vstr	s15, [fp, #-16]
/Users/winterji/Desktop/FAV/Navazujici/OS/semestralka-kiv-os/sources/stdlib/src/stdstring.cpp:91 (discriminator 2)
    for (int i = 0; i < decimal_places; i++) {
    8c10:	e51b3018 	ldr	r3, [fp, #-24]	; 0xffffffe8
    8c14:	e2833001 	add	r3, r3, #1
    8c18:	e50b3018 	str	r3, [fp, #-24]	; 0xffffffe8
    8c1c:	eaffffe1 	b	8ba8 <_Z4ftoafPcj+0x178>
/Users/winterji/Desktop/FAV/Navazujici/OS/semestralka-kiv-os/sources/stdlib/src/stdstring.cpp:99
    }

    // Null-terminate the string
    *ptr = '\0';
    8c20:	e51b3008 	ldr	r3, [fp, #-8]
    8c24:	e3a02000 	mov	r2, #0
    8c28:	e5c32000 	strb	r2, [r3]
/Users/winterji/Desktop/FAV/Navazujici/OS/semestralka-kiv-os/sources/stdlib/src/stdstring.cpp:102

    // Remove trailing zeros if any decimal places were specified
    if (decimal_places > 0) {
    8c2c:	e51b3038 	ldr	r3, [fp, #-56]	; 0xffffffc8
    8c30:	e3530000 	cmp	r3, #0
    8c34:	0a00001b 	beq	8ca8 <_Z4ftoafPcj+0x278>
/Users/winterji/Desktop/FAV/Navazujici/OS/semestralka-kiv-os/sources/stdlib/src/stdstring.cpp:103
        char* end = ptr - 1;
    8c38:	e51b3008 	ldr	r3, [fp, #-8]
    8c3c:	e2433001 	sub	r3, r3, #1
    8c40:	e50b301c 	str	r3, [fp, #-28]	; 0xffffffe4
/Users/winterji/Desktop/FAV/Navazujici/OS/semestralka-kiv-os/sources/stdlib/src/stdstring.cpp:104
        while (end > output && *end == '0') {
    8c44:	e51b201c 	ldr	r2, [fp, #-28]	; 0xffffffe4
    8c48:	e51b3034 	ldr	r3, [fp, #-52]	; 0xffffffcc
    8c4c:	e1520003 	cmp	r2, r3
    8c50:	9a000009 	bls	8c7c <_Z4ftoafPcj+0x24c>
/Users/winterji/Desktop/FAV/Navazujici/OS/semestralka-kiv-os/sources/stdlib/src/stdstring.cpp:104 (discriminator 1)
    8c54:	e51b301c 	ldr	r3, [fp, #-28]	; 0xffffffe4
    8c58:	e5d33000 	ldrb	r3, [r3]
    8c5c:	e3530030 	cmp	r3, #48	; 0x30
    8c60:	1a000005 	bne	8c7c <_Z4ftoafPcj+0x24c>
/Users/winterji/Desktop/FAV/Navazujici/OS/semestralka-kiv-os/sources/stdlib/src/stdstring.cpp:105
            *end-- = '\0';
    8c64:	e51b301c 	ldr	r3, [fp, #-28]	; 0xffffffe4
    8c68:	e2432001 	sub	r2, r3, #1
    8c6c:	e50b201c 	str	r2, [fp, #-28]	; 0xffffffe4
    8c70:	e3a02000 	mov	r2, #0
    8c74:	e5c32000 	strb	r2, [r3]
/Users/winterji/Desktop/FAV/Navazujici/OS/semestralka-kiv-os/sources/stdlib/src/stdstring.cpp:104
        while (end > output && *end == '0') {
    8c78:	eafffff1 	b	8c44 <_Z4ftoafPcj+0x214>
/Users/winterji/Desktop/FAV/Navazujici/OS/semestralka-kiv-os/sources/stdlib/src/stdstring.cpp:107
        }
        if (end > output && *end == '.') {
    8c7c:	e51b201c 	ldr	r2, [fp, #-28]	; 0xffffffe4
    8c80:	e51b3034 	ldr	r3, [fp, #-52]	; 0xffffffcc
    8c84:	e1520003 	cmp	r2, r3
    8c88:	9a000006 	bls	8ca8 <_Z4ftoafPcj+0x278>
/Users/winterji/Desktop/FAV/Navazujici/OS/semestralka-kiv-os/sources/stdlib/src/stdstring.cpp:107 (discriminator 1)
    8c8c:	e51b301c 	ldr	r3, [fp, #-28]	; 0xffffffe4
    8c90:	e5d33000 	ldrb	r3, [r3]
    8c94:	e353002e 	cmp	r3, #46	; 0x2e
    8c98:	1a000002 	bne	8ca8 <_Z4ftoafPcj+0x278>
/Users/winterji/Desktop/FAV/Navazujici/OS/semestralka-kiv-os/sources/stdlib/src/stdstring.cpp:108
            *end = '\0'; // Remove the decimal point if no fractional part remains
    8c9c:	e51b301c 	ldr	r3, [fp, #-28]	; 0xffffffe4
    8ca0:	e3a02000 	mov	r2, #0
    8ca4:	e5c32000 	strb	r2, [r3]
/Users/winterji/Desktop/FAV/Navazujici/OS/semestralka-kiv-os/sources/stdlib/src/stdstring.cpp:112
        }
    }

    return output;
    8ca8:	e51b3034 	ldr	r3, [fp, #-52]	; 0xffffffcc
/Users/winterji/Desktop/FAV/Navazujici/OS/semestralka-kiv-os/sources/stdlib/src/stdstring.cpp:113
}
    8cac:	e1a00003 	mov	r0, r3
    8cb0:	e28bd000 	add	sp, fp, #0
    8cb4:	e49db004 	pop	{fp}		; (ldr fp, [sp], #4)
    8cb8:	e12fff1e 	bx	lr
    8cbc:	41200000 			; <UNDEFINED> instruction: 0x41200000
    8cc0:	66666667 	strbtvs	r6, [r6], -r7, ror #12

00008cc4 <_Z7strncpyPcPKci>:
_Z7strncpyPcPKci():
/Users/winterji/Desktop/FAV/Navazujici/OS/semestralka-kiv-os/sources/stdlib/src/stdstring.cpp:116

char* strncpy(char* dest, const char *src, int num)
{
    8cc4:	e52db004 	push	{fp}		; (str fp, [sp, #-4]!)
    8cc8:	e28db000 	add	fp, sp, #0
    8ccc:	e24dd01c 	sub	sp, sp, #28
    8cd0:	e50b0010 	str	r0, [fp, #-16]
    8cd4:	e50b1014 	str	r1, [fp, #-20]	; 0xffffffec
    8cd8:	e50b2018 	str	r2, [fp, #-24]	; 0xffffffe8
/Users/winterji/Desktop/FAV/Navazujici/OS/semestralka-kiv-os/sources/stdlib/src/stdstring.cpp:119
	int i;

	for (i = 0; i < num && src[i] != '\0'; i++)
    8cdc:	e3a03000 	mov	r3, #0
    8ce0:	e50b3008 	str	r3, [fp, #-8]
/Users/winterji/Desktop/FAV/Navazujici/OS/semestralka-kiv-os/sources/stdlib/src/stdstring.cpp:119 (discriminator 4)
    8ce4:	e51b2008 	ldr	r2, [fp, #-8]
    8ce8:	e51b3018 	ldr	r3, [fp, #-24]	; 0xffffffe8
    8cec:	e1520003 	cmp	r2, r3
    8cf0:	aa000011 	bge	8d3c <_Z7strncpyPcPKci+0x78>
/Users/winterji/Desktop/FAV/Navazujici/OS/semestralka-kiv-os/sources/stdlib/src/stdstring.cpp:119 (discriminator 2)
    8cf4:	e51b3008 	ldr	r3, [fp, #-8]
    8cf8:	e51b2014 	ldr	r2, [fp, #-20]	; 0xffffffec
    8cfc:	e0823003 	add	r3, r2, r3
    8d00:	e5d33000 	ldrb	r3, [r3]
    8d04:	e3530000 	cmp	r3, #0
    8d08:	0a00000b 	beq	8d3c <_Z7strncpyPcPKci+0x78>
/Users/winterji/Desktop/FAV/Navazujici/OS/semestralka-kiv-os/sources/stdlib/src/stdstring.cpp:120 (discriminator 3)
		dest[i] = src[i];
    8d0c:	e51b3008 	ldr	r3, [fp, #-8]
    8d10:	e51b2014 	ldr	r2, [fp, #-20]	; 0xffffffec
    8d14:	e0822003 	add	r2, r2, r3
    8d18:	e51b3008 	ldr	r3, [fp, #-8]
    8d1c:	e51b1010 	ldr	r1, [fp, #-16]
    8d20:	e0813003 	add	r3, r1, r3
    8d24:	e5d22000 	ldrb	r2, [r2]
    8d28:	e5c32000 	strb	r2, [r3]
/Users/winterji/Desktop/FAV/Navazujici/OS/semestralka-kiv-os/sources/stdlib/src/stdstring.cpp:119 (discriminator 3)
	for (i = 0; i < num && src[i] != '\0'; i++)
    8d2c:	e51b3008 	ldr	r3, [fp, #-8]
    8d30:	e2833001 	add	r3, r3, #1
    8d34:	e50b3008 	str	r3, [fp, #-8]
    8d38:	eaffffe9 	b	8ce4 <_Z7strncpyPcPKci+0x20>
/Users/winterji/Desktop/FAV/Navazujici/OS/semestralka-kiv-os/sources/stdlib/src/stdstring.cpp:121 (discriminator 2)
	for (; i < num; i++)
    8d3c:	e51b2008 	ldr	r2, [fp, #-8]
    8d40:	e51b3018 	ldr	r3, [fp, #-24]	; 0xffffffe8
    8d44:	e1520003 	cmp	r2, r3
    8d48:	aa000008 	bge	8d70 <_Z7strncpyPcPKci+0xac>
/Users/winterji/Desktop/FAV/Navazujici/OS/semestralka-kiv-os/sources/stdlib/src/stdstring.cpp:122 (discriminator 1)
		dest[i] = '\0';
    8d4c:	e51b3008 	ldr	r3, [fp, #-8]
    8d50:	e51b2010 	ldr	r2, [fp, #-16]
    8d54:	e0823003 	add	r3, r2, r3
    8d58:	e3a02000 	mov	r2, #0
    8d5c:	e5c32000 	strb	r2, [r3]
/Users/winterji/Desktop/FAV/Navazujici/OS/semestralka-kiv-os/sources/stdlib/src/stdstring.cpp:121 (discriminator 1)
	for (; i < num; i++)
    8d60:	e51b3008 	ldr	r3, [fp, #-8]
    8d64:	e2833001 	add	r3, r3, #1
    8d68:	e50b3008 	str	r3, [fp, #-8]
    8d6c:	eafffff2 	b	8d3c <_Z7strncpyPcPKci+0x78>
/Users/winterji/Desktop/FAV/Navazujici/OS/semestralka-kiv-os/sources/stdlib/src/stdstring.cpp:124

   return dest;
    8d70:	e51b3010 	ldr	r3, [fp, #-16]
/Users/winterji/Desktop/FAV/Navazujici/OS/semestralka-kiv-os/sources/stdlib/src/stdstring.cpp:125
}
    8d74:	e1a00003 	mov	r0, r3
    8d78:	e28bd000 	add	sp, fp, #0
    8d7c:	e49db004 	pop	{fp}		; (ldr fp, [sp], #4)
    8d80:	e12fff1e 	bx	lr

00008d84 <_Z7strncmpPKcS0_i>:
_Z7strncmpPKcS0_i():
/Users/winterji/Desktop/FAV/Navazujici/OS/semestralka-kiv-os/sources/stdlib/src/stdstring.cpp:128

int strncmp(const char *s1, const char *s2, int num)
{
    8d84:	e52db004 	push	{fp}		; (str fp, [sp, #-4]!)
    8d88:	e28db000 	add	fp, sp, #0
    8d8c:	e24dd01c 	sub	sp, sp, #28
    8d90:	e50b0010 	str	r0, [fp, #-16]
    8d94:	e50b1014 	str	r1, [fp, #-20]	; 0xffffffec
    8d98:	e50b2018 	str	r2, [fp, #-24]	; 0xffffffe8
/Users/winterji/Desktop/FAV/Navazujici/OS/semestralka-kiv-os/sources/stdlib/src/stdstring.cpp:130
	unsigned char u1, u2;
  	while (num-- > 0)
    8d9c:	e51b3018 	ldr	r3, [fp, #-24]	; 0xffffffe8
    8da0:	e2432001 	sub	r2, r3, #1
    8da4:	e50b2018 	str	r2, [fp, #-24]	; 0xffffffe8
    8da8:	e3530000 	cmp	r3, #0
    8dac:	c3a03001 	movgt	r3, #1
    8db0:	d3a03000 	movle	r3, #0
    8db4:	e6ef3073 	uxtb	r3, r3
    8db8:	e3530000 	cmp	r3, #0
    8dbc:	0a000016 	beq	8e1c <_Z7strncmpPKcS0_i+0x98>
/Users/winterji/Desktop/FAV/Navazujici/OS/semestralka-kiv-os/sources/stdlib/src/stdstring.cpp:132
    {
      	u1 = (unsigned char) *s1++;
    8dc0:	e51b3010 	ldr	r3, [fp, #-16]
    8dc4:	e2832001 	add	r2, r3, #1
    8dc8:	e50b2010 	str	r2, [fp, #-16]
    8dcc:	e5d33000 	ldrb	r3, [r3]
    8dd0:	e54b3005 	strb	r3, [fp, #-5]
/Users/winterji/Desktop/FAV/Navazujici/OS/semestralka-kiv-os/sources/stdlib/src/stdstring.cpp:133
     	u2 = (unsigned char) *s2++;
    8dd4:	e51b3014 	ldr	r3, [fp, #-20]	; 0xffffffec
    8dd8:	e2832001 	add	r2, r3, #1
    8ddc:	e50b2014 	str	r2, [fp, #-20]	; 0xffffffec
    8de0:	e5d33000 	ldrb	r3, [r3]
    8de4:	e54b3006 	strb	r3, [fp, #-6]
/Users/winterji/Desktop/FAV/Navazujici/OS/semestralka-kiv-os/sources/stdlib/src/stdstring.cpp:134
      	if (u1 != u2)
    8de8:	e55b2005 	ldrb	r2, [fp, #-5]
    8dec:	e55b3006 	ldrb	r3, [fp, #-6]
    8df0:	e1520003 	cmp	r2, r3
    8df4:	0a000003 	beq	8e08 <_Z7strncmpPKcS0_i+0x84>
/Users/winterji/Desktop/FAV/Navazujici/OS/semestralka-kiv-os/sources/stdlib/src/stdstring.cpp:135
        	return u1 - u2;
    8df8:	e55b2005 	ldrb	r2, [fp, #-5]
    8dfc:	e55b3006 	ldrb	r3, [fp, #-6]
    8e00:	e0423003 	sub	r3, r2, r3
    8e04:	ea000005 	b	8e20 <_Z7strncmpPKcS0_i+0x9c>
/Users/winterji/Desktop/FAV/Navazujici/OS/semestralka-kiv-os/sources/stdlib/src/stdstring.cpp:136
      	if (u1 == '\0')
    8e08:	e55b3005 	ldrb	r3, [fp, #-5]
    8e0c:	e3530000 	cmp	r3, #0
    8e10:	1affffe1 	bne	8d9c <_Z7strncmpPKcS0_i+0x18>
/Users/winterji/Desktop/FAV/Navazujici/OS/semestralka-kiv-os/sources/stdlib/src/stdstring.cpp:137
        	return 0;
    8e14:	e3a03000 	mov	r3, #0
    8e18:	ea000000 	b	8e20 <_Z7strncmpPKcS0_i+0x9c>
/Users/winterji/Desktop/FAV/Navazujici/OS/semestralka-kiv-os/sources/stdlib/src/stdstring.cpp:140
    }

  	return 0;
    8e1c:	e3a03000 	mov	r3, #0
/Users/winterji/Desktop/FAV/Navazujici/OS/semestralka-kiv-os/sources/stdlib/src/stdstring.cpp:141
}
    8e20:	e1a00003 	mov	r0, r3
    8e24:	e28bd000 	add	sp, fp, #0
    8e28:	e49db004 	pop	{fp}		; (ldr fp, [sp], #4)
    8e2c:	e12fff1e 	bx	lr

00008e30 <_Z6strlenPKc>:
_Z6strlenPKc():
/Users/winterji/Desktop/FAV/Navazujici/OS/semestralka-kiv-os/sources/stdlib/src/stdstring.cpp:144

int strlen(const char* s)
{
    8e30:	e52db004 	push	{fp}		; (str fp, [sp, #-4]!)
    8e34:	e28db000 	add	fp, sp, #0
    8e38:	e24dd014 	sub	sp, sp, #20
    8e3c:	e50b0010 	str	r0, [fp, #-16]
/Users/winterji/Desktop/FAV/Navazujici/OS/semestralka-kiv-os/sources/stdlib/src/stdstring.cpp:145
	int i = 0;
    8e40:	e3a03000 	mov	r3, #0
    8e44:	e50b3008 	str	r3, [fp, #-8]
/Users/winterji/Desktop/FAV/Navazujici/OS/semestralka-kiv-os/sources/stdlib/src/stdstring.cpp:147

	while (s[i] != '\0')
    8e48:	e51b3008 	ldr	r3, [fp, #-8]
    8e4c:	e51b2010 	ldr	r2, [fp, #-16]
    8e50:	e0823003 	add	r3, r2, r3
    8e54:	e5d33000 	ldrb	r3, [r3]
    8e58:	e3530000 	cmp	r3, #0
    8e5c:	0a000003 	beq	8e70 <_Z6strlenPKc+0x40>
/Users/winterji/Desktop/FAV/Navazujici/OS/semestralka-kiv-os/sources/stdlib/src/stdstring.cpp:148
		i++;
    8e60:	e51b3008 	ldr	r3, [fp, #-8]
    8e64:	e2833001 	add	r3, r3, #1
    8e68:	e50b3008 	str	r3, [fp, #-8]
/Users/winterji/Desktop/FAV/Navazujici/OS/semestralka-kiv-os/sources/stdlib/src/stdstring.cpp:147
	while (s[i] != '\0')
    8e6c:	eafffff5 	b	8e48 <_Z6strlenPKc+0x18>
/Users/winterji/Desktop/FAV/Navazujici/OS/semestralka-kiv-os/sources/stdlib/src/stdstring.cpp:150

	return i;
    8e70:	e51b3008 	ldr	r3, [fp, #-8]
/Users/winterji/Desktop/FAV/Navazujici/OS/semestralka-kiv-os/sources/stdlib/src/stdstring.cpp:151
}
    8e74:	e1a00003 	mov	r0, r3
    8e78:	e28bd000 	add	sp, fp, #0
    8e7c:	e49db004 	pop	{fp}		; (ldr fp, [sp], #4)
    8e80:	e12fff1e 	bx	lr

00008e84 <_Z5bzeroPvi>:
_Z5bzeroPvi():
/Users/winterji/Desktop/FAV/Navazujici/OS/semestralka-kiv-os/sources/stdlib/src/stdstring.cpp:154

void bzero(void* memory, int length)
{
    8e84:	e52db004 	push	{fp}		; (str fp, [sp, #-4]!)
    8e88:	e28db000 	add	fp, sp, #0
    8e8c:	e24dd014 	sub	sp, sp, #20
    8e90:	e50b0010 	str	r0, [fp, #-16]
    8e94:	e50b1014 	str	r1, [fp, #-20]	; 0xffffffec
/Users/winterji/Desktop/FAV/Navazujici/OS/semestralka-kiv-os/sources/stdlib/src/stdstring.cpp:155
	char* mem = reinterpret_cast<char*>(memory);
    8e98:	e51b3010 	ldr	r3, [fp, #-16]
    8e9c:	e50b300c 	str	r3, [fp, #-12]
/Users/winterji/Desktop/FAV/Navazujici/OS/semestralka-kiv-os/sources/stdlib/src/stdstring.cpp:157

	for (int i = 0; i < length; i++)
    8ea0:	e3a03000 	mov	r3, #0
    8ea4:	e50b3008 	str	r3, [fp, #-8]
/Users/winterji/Desktop/FAV/Navazujici/OS/semestralka-kiv-os/sources/stdlib/src/stdstring.cpp:157 (discriminator 3)
    8ea8:	e51b2008 	ldr	r2, [fp, #-8]
    8eac:	e51b3014 	ldr	r3, [fp, #-20]	; 0xffffffec
    8eb0:	e1520003 	cmp	r2, r3
    8eb4:	aa000008 	bge	8edc <_Z5bzeroPvi+0x58>
/Users/winterji/Desktop/FAV/Navazujici/OS/semestralka-kiv-os/sources/stdlib/src/stdstring.cpp:158 (discriminator 2)
		mem[i] = 0;
    8eb8:	e51b3008 	ldr	r3, [fp, #-8]
    8ebc:	e51b200c 	ldr	r2, [fp, #-12]
    8ec0:	e0823003 	add	r3, r2, r3
    8ec4:	e3a02000 	mov	r2, #0
    8ec8:	e5c32000 	strb	r2, [r3]
/Users/winterji/Desktop/FAV/Navazujici/OS/semestralka-kiv-os/sources/stdlib/src/stdstring.cpp:157 (discriminator 2)
	for (int i = 0; i < length; i++)
    8ecc:	e51b3008 	ldr	r3, [fp, #-8]
    8ed0:	e2833001 	add	r3, r3, #1
    8ed4:	e50b3008 	str	r3, [fp, #-8]
    8ed8:	eafffff2 	b	8ea8 <_Z5bzeroPvi+0x24>
/Users/winterji/Desktop/FAV/Navazujici/OS/semestralka-kiv-os/sources/stdlib/src/stdstring.cpp:159
}
    8edc:	e320f000 	nop	{0}
    8ee0:	e28bd000 	add	sp, fp, #0
    8ee4:	e49db004 	pop	{fp}		; (ldr fp, [sp], #4)
    8ee8:	e12fff1e 	bx	lr

00008eec <_Z6memcpyPKvPvi>:
_Z6memcpyPKvPvi():
/Users/winterji/Desktop/FAV/Navazujici/OS/semestralka-kiv-os/sources/stdlib/src/stdstring.cpp:162

void memcpy(const void* src, void* dst, int num)
{
    8eec:	e52db004 	push	{fp}		; (str fp, [sp, #-4]!)
    8ef0:	e28db000 	add	fp, sp, #0
    8ef4:	e24dd024 	sub	sp, sp, #36	; 0x24
    8ef8:	e50b0018 	str	r0, [fp, #-24]	; 0xffffffe8
    8efc:	e50b101c 	str	r1, [fp, #-28]	; 0xffffffe4
    8f00:	e50b2020 	str	r2, [fp, #-32]	; 0xffffffe0
/Users/winterji/Desktop/FAV/Navazujici/OS/semestralka-kiv-os/sources/stdlib/src/stdstring.cpp:163
	const char* memsrc = reinterpret_cast<const char*>(src);
    8f04:	e51b3018 	ldr	r3, [fp, #-24]	; 0xffffffe8
    8f08:	e50b300c 	str	r3, [fp, #-12]
/Users/winterji/Desktop/FAV/Navazujici/OS/semestralka-kiv-os/sources/stdlib/src/stdstring.cpp:164
	char* memdst = reinterpret_cast<char*>(dst);
    8f0c:	e51b301c 	ldr	r3, [fp, #-28]	; 0xffffffe4
    8f10:	e50b3010 	str	r3, [fp, #-16]
/Users/winterji/Desktop/FAV/Navazujici/OS/semestralka-kiv-os/sources/stdlib/src/stdstring.cpp:166

	for (int i = 0; i < num; i++)
    8f14:	e3a03000 	mov	r3, #0
    8f18:	e50b3008 	str	r3, [fp, #-8]
/Users/winterji/Desktop/FAV/Navazujici/OS/semestralka-kiv-os/sources/stdlib/src/stdstring.cpp:166 (discriminator 3)
    8f1c:	e51b2008 	ldr	r2, [fp, #-8]
    8f20:	e51b3020 	ldr	r3, [fp, #-32]	; 0xffffffe0
    8f24:	e1520003 	cmp	r2, r3
    8f28:	aa00000b 	bge	8f5c <_Z6memcpyPKvPvi+0x70>
/Users/winterji/Desktop/FAV/Navazujici/OS/semestralka-kiv-os/sources/stdlib/src/stdstring.cpp:167 (discriminator 2)
		memdst[i] = memsrc[i];
    8f2c:	e51b3008 	ldr	r3, [fp, #-8]
    8f30:	e51b200c 	ldr	r2, [fp, #-12]
    8f34:	e0822003 	add	r2, r2, r3
    8f38:	e51b3008 	ldr	r3, [fp, #-8]
    8f3c:	e51b1010 	ldr	r1, [fp, #-16]
    8f40:	e0813003 	add	r3, r1, r3
    8f44:	e5d22000 	ldrb	r2, [r2]
    8f48:	e5c32000 	strb	r2, [r3]
/Users/winterji/Desktop/FAV/Navazujici/OS/semestralka-kiv-os/sources/stdlib/src/stdstring.cpp:166 (discriminator 2)
	for (int i = 0; i < num; i++)
    8f4c:	e51b3008 	ldr	r3, [fp, #-8]
    8f50:	e2833001 	add	r3, r3, #1
    8f54:	e50b3008 	str	r3, [fp, #-8]
    8f58:	eaffffef 	b	8f1c <_Z6memcpyPKvPvi+0x30>
/Users/winterji/Desktop/FAV/Navazujici/OS/semestralka-kiv-os/sources/stdlib/src/stdstring.cpp:168
}
    8f5c:	e320f000 	nop	{0}
    8f60:	e28bd000 	add	sp, fp, #0
    8f64:	e49db004 	pop	{fp}		; (ldr fp, [sp], #4)
    8f68:	e12fff1e 	bx	lr

00008f6c <_Z6concatPcPKc>:
_Z6concatPcPKc():
/Users/winterji/Desktop/FAV/Navazujici/OS/semestralka-kiv-os/sources/stdlib/src/stdstring.cpp:170

void concat(char* dest, const char* src) {
    8f6c:	e92d4800 	push	{fp, lr}
    8f70:	e28db004 	add	fp, sp, #4
    8f74:	e24dd010 	sub	sp, sp, #16
    8f78:	e50b0010 	str	r0, [fp, #-16]
    8f7c:	e50b1014 	str	r1, [fp, #-20]	; 0xffffffec
/Users/winterji/Desktop/FAV/Navazujici/OS/semestralka-kiv-os/sources/stdlib/src/stdstring.cpp:171
	int i = strlen(dest);
    8f80:	e51b0010 	ldr	r0, [fp, #-16]
    8f84:	ebffffa9 	bl	8e30 <_Z6strlenPKc>
    8f88:	e50b0008 	str	r0, [fp, #-8]
/Users/winterji/Desktop/FAV/Navazujici/OS/semestralka-kiv-os/sources/stdlib/src/stdstring.cpp:172
	int j = strlen(src);
    8f8c:	e51b0014 	ldr	r0, [fp, #-20]	; 0xffffffec
    8f90:	ebffffa6 	bl	8e30 <_Z6strlenPKc>
    8f94:	e50b000c 	str	r0, [fp, #-12]
/Users/winterji/Desktop/FAV/Navazujici/OS/semestralka-kiv-os/sources/stdlib/src/stdstring.cpp:173
	strncpy(dest + i, src, j);
    8f98:	e51b3008 	ldr	r3, [fp, #-8]
    8f9c:	e51b2010 	ldr	r2, [fp, #-16]
    8fa0:	e0823003 	add	r3, r2, r3
    8fa4:	e51b200c 	ldr	r2, [fp, #-12]
    8fa8:	e51b1014 	ldr	r1, [fp, #-20]	; 0xffffffec
    8fac:	e1a00003 	mov	r0, r3
    8fb0:	ebffff43 	bl	8cc4 <_Z7strncpyPcPKci>
/Users/winterji/Desktop/FAV/Navazujici/OS/semestralka-kiv-os/sources/stdlib/src/stdstring.cpp:174
	dest[i + j + 1] = '\0';
    8fb4:	e51b2008 	ldr	r2, [fp, #-8]
    8fb8:	e51b300c 	ldr	r3, [fp, #-12]
    8fbc:	e0823003 	add	r3, r2, r3
    8fc0:	e2833001 	add	r3, r3, #1
    8fc4:	e51b2010 	ldr	r2, [fp, #-16]
    8fc8:	e0823003 	add	r3, r2, r3
    8fcc:	e3a02000 	mov	r2, #0
    8fd0:	e5c32000 	strb	r2, [r3]
/Users/winterji/Desktop/FAV/Navazujici/OS/semestralka-kiv-os/sources/stdlib/src/stdstring.cpp:175
    8fd4:	e320f000 	nop	{0}
    8fd8:	e24bd004 	sub	sp, fp, #4
    8fdc:	e8bd8800 	pop	{fp, pc}

00008fe0 <__udivsi3>:
__udivsi3():
    8fe0:	e2512001 	subs	r2, r1, #1
    8fe4:	012fff1e 	bxeq	lr
    8fe8:	3a000074 	bcc	91c0 <__udivsi3+0x1e0>
    8fec:	e1500001 	cmp	r0, r1
    8ff0:	9a00006b 	bls	91a4 <__udivsi3+0x1c4>
    8ff4:	e1110002 	tst	r1, r2
    8ff8:	0a00006c 	beq	91b0 <__udivsi3+0x1d0>
    8ffc:	e16f3f10 	clz	r3, r0
    9000:	e16f2f11 	clz	r2, r1
    9004:	e0423003 	sub	r3, r2, r3
    9008:	e273301f 	rsbs	r3, r3, #31
    900c:	10833083 	addne	r3, r3, r3, lsl #1
    9010:	e3a02000 	mov	r2, #0
    9014:	108ff103 	addne	pc, pc, r3, lsl #2
    9018:	e1a00000 	nop			; (mov r0, r0)
    901c:	e1500f81 	cmp	r0, r1, lsl #31
    9020:	e0a22002 	adc	r2, r2, r2
    9024:	20400f81 	subcs	r0, r0, r1, lsl #31
    9028:	e1500f01 	cmp	r0, r1, lsl #30
    902c:	e0a22002 	adc	r2, r2, r2
    9030:	20400f01 	subcs	r0, r0, r1, lsl #30
    9034:	e1500e81 	cmp	r0, r1, lsl #29
    9038:	e0a22002 	adc	r2, r2, r2
    903c:	20400e81 	subcs	r0, r0, r1, lsl #29
    9040:	e1500e01 	cmp	r0, r1, lsl #28
    9044:	e0a22002 	adc	r2, r2, r2
    9048:	20400e01 	subcs	r0, r0, r1, lsl #28
    904c:	e1500d81 	cmp	r0, r1, lsl #27
    9050:	e0a22002 	adc	r2, r2, r2
    9054:	20400d81 	subcs	r0, r0, r1, lsl #27
    9058:	e1500d01 	cmp	r0, r1, lsl #26
    905c:	e0a22002 	adc	r2, r2, r2
    9060:	20400d01 	subcs	r0, r0, r1, lsl #26
    9064:	e1500c81 	cmp	r0, r1, lsl #25
    9068:	e0a22002 	adc	r2, r2, r2
    906c:	20400c81 	subcs	r0, r0, r1, lsl #25
    9070:	e1500c01 	cmp	r0, r1, lsl #24
    9074:	e0a22002 	adc	r2, r2, r2
    9078:	20400c01 	subcs	r0, r0, r1, lsl #24
    907c:	e1500b81 	cmp	r0, r1, lsl #23
    9080:	e0a22002 	adc	r2, r2, r2
    9084:	20400b81 	subcs	r0, r0, r1, lsl #23
    9088:	e1500b01 	cmp	r0, r1, lsl #22
    908c:	e0a22002 	adc	r2, r2, r2
    9090:	20400b01 	subcs	r0, r0, r1, lsl #22
    9094:	e1500a81 	cmp	r0, r1, lsl #21
    9098:	e0a22002 	adc	r2, r2, r2
    909c:	20400a81 	subcs	r0, r0, r1, lsl #21
    90a0:	e1500a01 	cmp	r0, r1, lsl #20
    90a4:	e0a22002 	adc	r2, r2, r2
    90a8:	20400a01 	subcs	r0, r0, r1, lsl #20
    90ac:	e1500981 	cmp	r0, r1, lsl #19
    90b0:	e0a22002 	adc	r2, r2, r2
    90b4:	20400981 	subcs	r0, r0, r1, lsl #19
    90b8:	e1500901 	cmp	r0, r1, lsl #18
    90bc:	e0a22002 	adc	r2, r2, r2
    90c0:	20400901 	subcs	r0, r0, r1, lsl #18
    90c4:	e1500881 	cmp	r0, r1, lsl #17
    90c8:	e0a22002 	adc	r2, r2, r2
    90cc:	20400881 	subcs	r0, r0, r1, lsl #17
    90d0:	e1500801 	cmp	r0, r1, lsl #16
    90d4:	e0a22002 	adc	r2, r2, r2
    90d8:	20400801 	subcs	r0, r0, r1, lsl #16
    90dc:	e1500781 	cmp	r0, r1, lsl #15
    90e0:	e0a22002 	adc	r2, r2, r2
    90e4:	20400781 	subcs	r0, r0, r1, lsl #15
    90e8:	e1500701 	cmp	r0, r1, lsl #14
    90ec:	e0a22002 	adc	r2, r2, r2
    90f0:	20400701 	subcs	r0, r0, r1, lsl #14
    90f4:	e1500681 	cmp	r0, r1, lsl #13
    90f8:	e0a22002 	adc	r2, r2, r2
    90fc:	20400681 	subcs	r0, r0, r1, lsl #13
    9100:	e1500601 	cmp	r0, r1, lsl #12
    9104:	e0a22002 	adc	r2, r2, r2
    9108:	20400601 	subcs	r0, r0, r1, lsl #12
    910c:	e1500581 	cmp	r0, r1, lsl #11
    9110:	e0a22002 	adc	r2, r2, r2
    9114:	20400581 	subcs	r0, r0, r1, lsl #11
    9118:	e1500501 	cmp	r0, r1, lsl #10
    911c:	e0a22002 	adc	r2, r2, r2
    9120:	20400501 	subcs	r0, r0, r1, lsl #10
    9124:	e1500481 	cmp	r0, r1, lsl #9
    9128:	e0a22002 	adc	r2, r2, r2
    912c:	20400481 	subcs	r0, r0, r1, lsl #9
    9130:	e1500401 	cmp	r0, r1, lsl #8
    9134:	e0a22002 	adc	r2, r2, r2
    9138:	20400401 	subcs	r0, r0, r1, lsl #8
    913c:	e1500381 	cmp	r0, r1, lsl #7
    9140:	e0a22002 	adc	r2, r2, r2
    9144:	20400381 	subcs	r0, r0, r1, lsl #7
    9148:	e1500301 	cmp	r0, r1, lsl #6
    914c:	e0a22002 	adc	r2, r2, r2
    9150:	20400301 	subcs	r0, r0, r1, lsl #6
    9154:	e1500281 	cmp	r0, r1, lsl #5
    9158:	e0a22002 	adc	r2, r2, r2
    915c:	20400281 	subcs	r0, r0, r1, lsl #5
    9160:	e1500201 	cmp	r0, r1, lsl #4
    9164:	e0a22002 	adc	r2, r2, r2
    9168:	20400201 	subcs	r0, r0, r1, lsl #4
    916c:	e1500181 	cmp	r0, r1, lsl #3
    9170:	e0a22002 	adc	r2, r2, r2
    9174:	20400181 	subcs	r0, r0, r1, lsl #3
    9178:	e1500101 	cmp	r0, r1, lsl #2
    917c:	e0a22002 	adc	r2, r2, r2
    9180:	20400101 	subcs	r0, r0, r1, lsl #2
    9184:	e1500081 	cmp	r0, r1, lsl #1
    9188:	e0a22002 	adc	r2, r2, r2
    918c:	20400081 	subcs	r0, r0, r1, lsl #1
    9190:	e1500001 	cmp	r0, r1
    9194:	e0a22002 	adc	r2, r2, r2
    9198:	20400001 	subcs	r0, r0, r1
    919c:	e1a00002 	mov	r0, r2
    91a0:	e12fff1e 	bx	lr
    91a4:	03a00001 	moveq	r0, #1
    91a8:	13a00000 	movne	r0, #0
    91ac:	e12fff1e 	bx	lr
    91b0:	e16f2f11 	clz	r2, r1
    91b4:	e262201f 	rsb	r2, r2, #31
    91b8:	e1a00230 	lsr	r0, r0, r2
    91bc:	e12fff1e 	bx	lr
    91c0:	e3500000 	cmp	r0, #0
    91c4:	13e00000 	mvnne	r0, #0
    91c8:	ea000007 	b	91ec <__aeabi_idiv0>

000091cc <__aeabi_uidivmod>:
__aeabi_uidivmod():
    91cc:	e3510000 	cmp	r1, #0
    91d0:	0afffffa 	beq	91c0 <__udivsi3+0x1e0>
    91d4:	e92d4003 	push	{r0, r1, lr}
    91d8:	ebffff80 	bl	8fe0 <__udivsi3>
    91dc:	e8bd4006 	pop	{r1, r2, lr}
    91e0:	e0030092 	mul	r3, r2, r0
    91e4:	e0411003 	sub	r1, r1, r3
    91e8:	e12fff1e 	bx	lr

000091ec <__aeabi_idiv0>:
__aeabi_ldiv0():
    91ec:	e12fff1e 	bx	lr
