
./slave_task:     file format elf32-littlearm


Disassembly of section .text:

00008000 <_start>:
_start():
/Users/winterji/Desktop/FAV/Navazujici/OS/semestralka-kiv-os/sources/userspace/crt0.s:10
;@ startovaci symbol - vstupni bod z jadra OS do uzivatelskeho programu
;@ v podstate jen ihned zavola nejakou C funkci, nepotrebujeme nic tak kritickeho, abychom to vsechno museli psal v ASM
;@ jen _start vlastne ani neni funkce, takze by tento vstupni bod mel byt psany takto; rovnez je treba se ujistit, ze
;@ je tento symbol relokovany spravne na 0x8000 (tam OS ocekava, ze se nachazi vstupni bod)
_start:
    bl __crt0_run
    8000:	eb000017 	bl	8064 <__crt0_run>

00008004 <_hang>:
_hang():
/Users/winterji/Desktop/FAV/Navazujici/OS/semestralka-kiv-os/sources/userspace/crt0.s:13
    ;@ z funkce __crt0_run by se nemel proces uz vratit, ale kdyby neco, tak se zacyklime
_hang:
    b _hang
    8004:	eafffffe 	b	8004 <_hang>

00008008 <__crt0_init_bss>:
__crt0_init_bss():
/Users/winterji/Desktop/FAV/Navazujici/OS/semestralka-kiv-os/sources/userspace/crt0.c:10

extern unsigned int __bss_start;
extern unsigned int __bss_end;

void __crt0_init_bss()
{
    8008:	e52db004 	push	{fp}		; (str fp, [sp, #-4]!)
    800c:	e28db000 	add	fp, sp, #0
    8010:	e24dd00c 	sub	sp, sp, #12
/Users/winterji/Desktop/FAV/Navazujici/OS/semestralka-kiv-os/sources/userspace/crt0.c:11
    for (unsigned int* cur = &__bss_start; cur < &__bss_end; cur++)
    8014:	e59f3040 	ldr	r3, [pc, #64]	; 805c <__crt0_init_bss+0x54>
    8018:	e50b3008 	str	r3, [fp, #-8]
    801c:	ea000005 	b	8038 <__crt0_init_bss+0x30>
/Users/winterji/Desktop/FAV/Navazujici/OS/semestralka-kiv-os/sources/userspace/crt0.c:12 (discriminator 3)
        *cur = 0;
    8020:	e51b3008 	ldr	r3, [fp, #-8]
    8024:	e3a02000 	mov	r2, #0
    8028:	e5832000 	str	r2, [r3]
/Users/winterji/Desktop/FAV/Navazujici/OS/semestralka-kiv-os/sources/userspace/crt0.c:11 (discriminator 3)
    for (unsigned int* cur = &__bss_start; cur < &__bss_end; cur++)
    802c:	e51b3008 	ldr	r3, [fp, #-8]
    8030:	e2833004 	add	r3, r3, #4
    8034:	e50b3008 	str	r3, [fp, #-8]
/Users/winterji/Desktop/FAV/Navazujici/OS/semestralka-kiv-os/sources/userspace/crt0.c:11 (discriminator 1)
    8038:	e51b3008 	ldr	r3, [fp, #-8]
    803c:	e59f201c 	ldr	r2, [pc, #28]	; 8060 <__crt0_init_bss+0x58>
    8040:	e1530002 	cmp	r3, r2
    8044:	3afffff5 	bcc	8020 <__crt0_init_bss+0x18>
/Users/winterji/Desktop/FAV/Navazujici/OS/semestralka-kiv-os/sources/userspace/crt0.c:13
}
    8048:	e320f000 	nop	{0}
    804c:	e320f000 	nop	{0}
    8050:	e28bd000 	add	sp, fp, #0
    8054:	e49db004 	pop	{fp}		; (ldr fp, [sp], #4)
    8058:	e12fff1e 	bx	lr
    805c:	00009cf0 	strdeq	r9, [r0], -r0
    8060:	00009d90 	muleq	r0, r0, sp

00008064 <__crt0_run>:
__crt0_run():
/Users/winterji/Desktop/FAV/Navazujici/OS/semestralka-kiv-os/sources/userspace/crt0.c:16

void __crt0_run()
{
    8064:	e92d4800 	push	{fp, lr}
    8068:	e28db004 	add	fp, sp, #4
    806c:	e24dd008 	sub	sp, sp, #8
/Users/winterji/Desktop/FAV/Navazujici/OS/semestralka-kiv-os/sources/userspace/crt0.c:18
    // inicializace .bss sekce (vynulovani)
    __crt0_init_bss();
    8070:	ebffffe4 	bl	8008 <__crt0_init_bss>
/Users/winterji/Desktop/FAV/Navazujici/OS/semestralka-kiv-os/sources/userspace/crt0.c:21

    // volani konstruktoru globalnich trid (C++)
    _cpp_startup();
    8074:	eb000040 	bl	817c <_cpp_startup>
/Users/winterji/Desktop/FAV/Navazujici/OS/semestralka-kiv-os/sources/userspace/crt0.c:26

    // volani funkce main
    // nebudeme se zde zabyvat predavanim parametru do funkce main
    // jinak by se mohly predavat napr. namapovane do virtualniho adr. prostoru a odkazem pres zasobnik (kam nam muze OS pushnout co chce)
    int result = main(0, 0);
    8078:	e3a01000 	mov	r1, #0
    807c:	e3a00000 	mov	r0, #0
    8080:	eb0002a7 	bl	8b24 <main>
    8084:	e50b0008 	str	r0, [fp, #-8]
/Users/winterji/Desktop/FAV/Navazujici/OS/semestralka-kiv-os/sources/userspace/crt0.c:29

    // volani destruktoru globalnich trid (C++)
    _cpp_shutdown();
    8088:	eb000051 	bl	81d4 <_cpp_shutdown>
/Users/winterji/Desktop/FAV/Navazujici/OS/semestralka-kiv-os/sources/userspace/crt0.c:32

    // volani terminate() syscallu s navratovym kodem funkce main
    asm volatile("mov r0, %0" : : "r" (result));
    808c:	e51b3008 	ldr	r3, [fp, #-8]
    8090:	e1a00003 	mov	r0, r3
/Users/winterji/Desktop/FAV/Navazujici/OS/semestralka-kiv-os/sources/userspace/crt0.c:33
    asm volatile("svc #1");
    8094:	ef000001 	svc	0x00000001
/Users/winterji/Desktop/FAV/Navazujici/OS/semestralka-kiv-os/sources/userspace/crt0.c:34
}
    8098:	e320f000 	nop	{0}
    809c:	e24bd004 	sub	sp, fp, #4
    80a0:	e8bd8800 	pop	{fp, pc}

000080a4 <__cxa_guard_acquire>:
__cxa_guard_acquire():
/Users/winterji/Desktop/FAV/Navazujici/OS/semestralka-kiv-os/sources/userspace/cxxabi.cpp:11
	extern "C" int __cxa_guard_acquire (__guard *);
	extern "C" void __cxa_guard_release (__guard *);
	extern "C" void __cxa_guard_abort (__guard *);

	extern "C" int __cxa_guard_acquire (__guard *g)
	{
    80a4:	e52db004 	push	{fp}		; (str fp, [sp, #-4]!)
    80a8:	e28db000 	add	fp, sp, #0
    80ac:	e24dd00c 	sub	sp, sp, #12
    80b0:	e50b0008 	str	r0, [fp, #-8]
/Users/winterji/Desktop/FAV/Navazujici/OS/semestralka-kiv-os/sources/userspace/cxxabi.cpp:12
		return !*(char *)(g);
    80b4:	e51b3008 	ldr	r3, [fp, #-8]
    80b8:	e5d33000 	ldrb	r3, [r3]
    80bc:	e3530000 	cmp	r3, #0
    80c0:	03a03001 	moveq	r3, #1
    80c4:	13a03000 	movne	r3, #0
    80c8:	e6ef3073 	uxtb	r3, r3
/Users/winterji/Desktop/FAV/Navazujici/OS/semestralka-kiv-os/sources/userspace/cxxabi.cpp:13
	}
    80cc:	e1a00003 	mov	r0, r3
    80d0:	e28bd000 	add	sp, fp, #0
    80d4:	e49db004 	pop	{fp}		; (ldr fp, [sp], #4)
    80d8:	e12fff1e 	bx	lr

000080dc <__cxa_guard_release>:
__cxa_guard_release():
/Users/winterji/Desktop/FAV/Navazujici/OS/semestralka-kiv-os/sources/userspace/cxxabi.cpp:16

	extern "C" void __cxa_guard_release (__guard *g)
	{
    80dc:	e52db004 	push	{fp}		; (str fp, [sp, #-4]!)
    80e0:	e28db000 	add	fp, sp, #0
    80e4:	e24dd00c 	sub	sp, sp, #12
    80e8:	e50b0008 	str	r0, [fp, #-8]
/Users/winterji/Desktop/FAV/Navazujici/OS/semestralka-kiv-os/sources/userspace/cxxabi.cpp:17
		*(char *)g = 1;
    80ec:	e51b3008 	ldr	r3, [fp, #-8]
    80f0:	e3a02001 	mov	r2, #1
    80f4:	e5c32000 	strb	r2, [r3]
/Users/winterji/Desktop/FAV/Navazujici/OS/semestralka-kiv-os/sources/userspace/cxxabi.cpp:18
	}
    80f8:	e320f000 	nop	{0}
    80fc:	e28bd000 	add	sp, fp, #0
    8100:	e49db004 	pop	{fp}		; (ldr fp, [sp], #4)
    8104:	e12fff1e 	bx	lr

00008108 <__cxa_guard_abort>:
__cxa_guard_abort():
/Users/winterji/Desktop/FAV/Navazujici/OS/semestralka-kiv-os/sources/userspace/cxxabi.cpp:21

	extern "C" void __cxa_guard_abort (__guard *)
	{
    8108:	e52db004 	push	{fp}		; (str fp, [sp, #-4]!)
    810c:	e28db000 	add	fp, sp, #0
    8110:	e24dd00c 	sub	sp, sp, #12
    8114:	e50b0008 	str	r0, [fp, #-8]
/Users/winterji/Desktop/FAV/Navazujici/OS/semestralka-kiv-os/sources/userspace/cxxabi.cpp:23

	}
    8118:	e320f000 	nop	{0}
    811c:	e28bd000 	add	sp, fp, #0
    8120:	e49db004 	pop	{fp}		; (ldr fp, [sp], #4)
    8124:	e12fff1e 	bx	lr

00008128 <__dso_handle>:
__dso_handle():
/Users/winterji/Desktop/FAV/Navazujici/OS/semestralka-kiv-os/sources/userspace/cxxabi.cpp:27
}

extern "C" void __dso_handle()
{
    8128:	e52db004 	push	{fp}		; (str fp, [sp, #-4]!)
    812c:	e28db000 	add	fp, sp, #0
/Users/winterji/Desktop/FAV/Navazujici/OS/semestralka-kiv-os/sources/userspace/cxxabi.cpp:29
    // ignore dtors for now
}
    8130:	e320f000 	nop	{0}
    8134:	e28bd000 	add	sp, fp, #0
    8138:	e49db004 	pop	{fp}		; (ldr fp, [sp], #4)
    813c:	e12fff1e 	bx	lr

00008140 <__cxa_atexit>:
__cxa_atexit():
/Users/winterji/Desktop/FAV/Navazujici/OS/semestralka-kiv-os/sources/userspace/cxxabi.cpp:32

extern "C" void __cxa_atexit()
{
    8140:	e52db004 	push	{fp}		; (str fp, [sp, #-4]!)
    8144:	e28db000 	add	fp, sp, #0
/Users/winterji/Desktop/FAV/Navazujici/OS/semestralka-kiv-os/sources/userspace/cxxabi.cpp:34
    // ignore dtors for now
}
    8148:	e320f000 	nop	{0}
    814c:	e28bd000 	add	sp, fp, #0
    8150:	e49db004 	pop	{fp}		; (ldr fp, [sp], #4)
    8154:	e12fff1e 	bx	lr

00008158 <__cxa_pure_virtual>:
__cxa_pure_virtual():
/Users/winterji/Desktop/FAV/Navazujici/OS/semestralka-kiv-os/sources/userspace/cxxabi.cpp:37

extern "C" void __cxa_pure_virtual()
{
    8158:	e52db004 	push	{fp}		; (str fp, [sp, #-4]!)
    815c:	e28db000 	add	fp, sp, #0
/Users/winterji/Desktop/FAV/Navazujici/OS/semestralka-kiv-os/sources/userspace/cxxabi.cpp:39
    // pure virtual method called
}
    8160:	e320f000 	nop	{0}
    8164:	e28bd000 	add	sp, fp, #0
    8168:	e49db004 	pop	{fp}		; (ldr fp, [sp], #4)
    816c:	e12fff1e 	bx	lr

00008170 <__aeabi_unwind_cpp_pr1>:
__aeabi_unwind_cpp_pr1():
/Users/winterji/Desktop/FAV/Navazujici/OS/semestralka-kiv-os/sources/userspace/cxxabi.cpp:42

extern "C" void __aeabi_unwind_cpp_pr1()
{
    8170:	e52db004 	push	{fp}		; (str fp, [sp, #-4]!)
    8174:	e28db000 	add	fp, sp, #0
/Users/winterji/Desktop/FAV/Navazujici/OS/semestralka-kiv-os/sources/userspace/cxxabi.cpp:43 (discriminator 1)
	while (true)
    8178:	eafffffe 	b	8178 <__aeabi_unwind_cpp_pr1+0x8>

0000817c <_cpp_startup>:
_cpp_startup():
/Users/winterji/Desktop/FAV/Navazujici/OS/semestralka-kiv-os/sources/userspace/cxxabi.cpp:61
extern "C" dtor_ptr __DTOR_LIST__[0];
// konec pole destruktoru
extern "C" dtor_ptr __DTOR_END__[0];

extern "C" int _cpp_startup(void)
{
    817c:	e92d4800 	push	{fp, lr}
    8180:	e28db004 	add	fp, sp, #4
    8184:	e24dd008 	sub	sp, sp, #8
/Users/winterji/Desktop/FAV/Navazujici/OS/semestralka-kiv-os/sources/userspace/cxxabi.cpp:66
	ctor_ptr* fnptr;
	
	// zavolame konstruktory globalnich C++ trid
	// v poli __CTOR_LIST__ jsou ukazatele na vygenerovane stuby volani konstruktoru
	for (fnptr = __CTOR_LIST__; fnptr < __CTOR_END__; fnptr++)
    8188:	e59f303c 	ldr	r3, [pc, #60]	; 81cc <_cpp_startup+0x50>
    818c:	e50b3008 	str	r3, [fp, #-8]
/Users/winterji/Desktop/FAV/Navazujici/OS/semestralka-kiv-os/sources/userspace/cxxabi.cpp:66 (discriminator 3)
    8190:	e51b3008 	ldr	r3, [fp, #-8]
    8194:	e59f2034 	ldr	r2, [pc, #52]	; 81d0 <_cpp_startup+0x54>
    8198:	e1530002 	cmp	r3, r2
    819c:	2a000006 	bcs	81bc <_cpp_startup+0x40>
/Users/winterji/Desktop/FAV/Navazujici/OS/semestralka-kiv-os/sources/userspace/cxxabi.cpp:67 (discriminator 2)
		(*fnptr)();
    81a0:	e51b3008 	ldr	r3, [fp, #-8]
    81a4:	e5933000 	ldr	r3, [r3]
    81a8:	e12fff33 	blx	r3
/Users/winterji/Desktop/FAV/Navazujici/OS/semestralka-kiv-os/sources/userspace/cxxabi.cpp:66 (discriminator 2)
	for (fnptr = __CTOR_LIST__; fnptr < __CTOR_END__; fnptr++)
    81ac:	e51b3008 	ldr	r3, [fp, #-8]
    81b0:	e2833004 	add	r3, r3, #4
    81b4:	e50b3008 	str	r3, [fp, #-8]
    81b8:	eafffff4 	b	8190 <_cpp_startup+0x14>
/Users/winterji/Desktop/FAV/Navazujici/OS/semestralka-kiv-os/sources/userspace/cxxabi.cpp:69
	
	return 0;
    81bc:	e3a03000 	mov	r3, #0
/Users/winterji/Desktop/FAV/Navazujici/OS/semestralka-kiv-os/sources/userspace/cxxabi.cpp:70
}
    81c0:	e1a00003 	mov	r0, r3
    81c4:	e24bd004 	sub	sp, fp, #4
    81c8:	e8bd8800 	pop	{fp, pc}
    81cc:	00009ce8 	andeq	r9, r0, r8, ror #25
    81d0:	00009ce8 	andeq	r9, r0, r8, ror #25

000081d4 <_cpp_shutdown>:
_cpp_shutdown():
/Users/winterji/Desktop/FAV/Navazujici/OS/semestralka-kiv-os/sources/userspace/cxxabi.cpp:73

extern "C" int _cpp_shutdown(void)
{
    81d4:	e92d4800 	push	{fp, lr}
    81d8:	e28db004 	add	fp, sp, #4
    81dc:	e24dd008 	sub	sp, sp, #8
/Users/winterji/Desktop/FAV/Navazujici/OS/semestralka-kiv-os/sources/userspace/cxxabi.cpp:77
	dtor_ptr* fnptr;
	
	// zavolame destruktory globalnich C++ trid
	for (fnptr = __DTOR_LIST__; fnptr < __DTOR_END__; fnptr++)
    81e0:	e59f303c 	ldr	r3, [pc, #60]	; 8224 <_cpp_shutdown+0x50>
    81e4:	e50b3008 	str	r3, [fp, #-8]
/Users/winterji/Desktop/FAV/Navazujici/OS/semestralka-kiv-os/sources/userspace/cxxabi.cpp:77 (discriminator 3)
    81e8:	e51b3008 	ldr	r3, [fp, #-8]
    81ec:	e59f2034 	ldr	r2, [pc, #52]	; 8228 <_cpp_shutdown+0x54>
    81f0:	e1530002 	cmp	r3, r2
    81f4:	2a000006 	bcs	8214 <_cpp_shutdown+0x40>
/Users/winterji/Desktop/FAV/Navazujici/OS/semestralka-kiv-os/sources/userspace/cxxabi.cpp:78 (discriminator 2)
		(*fnptr)();
    81f8:	e51b3008 	ldr	r3, [fp, #-8]
    81fc:	e5933000 	ldr	r3, [r3]
    8200:	e12fff33 	blx	r3
/Users/winterji/Desktop/FAV/Navazujici/OS/semestralka-kiv-os/sources/userspace/cxxabi.cpp:77 (discriminator 2)
	for (fnptr = __DTOR_LIST__; fnptr < __DTOR_END__; fnptr++)
    8204:	e51b3008 	ldr	r3, [fp, #-8]
    8208:	e2833004 	add	r3, r3, #4
    820c:	e50b3008 	str	r3, [fp, #-8]
    8210:	eafffff4 	b	81e8 <_cpp_shutdown+0x14>
/Users/winterji/Desktop/FAV/Navazujici/OS/semestralka-kiv-os/sources/userspace/cxxabi.cpp:80
	
	return 0;
    8214:	e3a03000 	mov	r3, #0
/Users/winterji/Desktop/FAV/Navazujici/OS/semestralka-kiv-os/sources/userspace/cxxabi.cpp:81
}
    8218:	e1a00003 	mov	r0, r3
    821c:	e24bd004 	sub	sp, fp, #4
    8220:	e8bd8800 	pop	{fp, pc}
    8224:	00009ce8 	andeq	r9, r0, r8, ror #25
    8228:	00009ce8 	andeq	r9, r0, r8, ror #25

0000822c <_Z8prep_msgPcPKc>:
_Z8prep_msgPcPKc():
/Users/winterji/Desktop/FAV/Navazujici/OS/semestralka-kiv-os/sources/userspace/slave_task/main.cpp:28
float prev_value = random_values[0];

float received_values[32];
uint32_t received_values_len = 0;

void prep_msg(char* buff, const char* msg) {
    822c:	e92d4810 	push	{r4, fp, lr}
    8230:	e28db008 	add	fp, sp, #8
    8234:	e24dd00c 	sub	sp, sp, #12
    8238:	e50b0010 	str	r0, [fp, #-16]
    823c:	e50b1014 	str	r1, [fp, #-20]	; 0xffffffec
/Users/winterji/Desktop/FAV/Navazujici/OS/semestralka-kiv-os/sources/userspace/slave_task/main.cpp:29
    switch (agreed_role)
    8240:	e59f3080 	ldr	r3, [pc, #128]	; 82c8 <_Z8prep_msgPcPKc+0x9c>
    8244:	e5933000 	ldr	r3, [r3]
    8248:	e3530000 	cmp	r3, #0
    824c:	0a000002 	beq	825c <_Z8prep_msgPcPKc+0x30>
    8250:	e3530001 	cmp	r3, #1
    8254:	0a000005 	beq	8270 <_Z8prep_msgPcPKc+0x44>
    8258:	ea000009 	b	8284 <_Z8prep_msgPcPKc+0x58>
/Users/winterji/Desktop/FAV/Navazujici/OS/semestralka-kiv-os/sources/userspace/slave_task/main.cpp:32
    {
    case CI2C_Mode::Master:
        strncpy(buff, "MASTER: ", 8);
    825c:	e3a02008 	mov	r2, #8
    8260:	e59f1064 	ldr	r1, [pc, #100]	; 82cc <_Z8prep_msgPcPKc+0xa0>
    8264:	e51b0010 	ldr	r0, [fp, #-16]
    8268:	eb0004cc 	bl	95a0 <_Z7strncpyPcPKci>
/Users/winterji/Desktop/FAV/Navazujici/OS/semestralka-kiv-os/sources/userspace/slave_task/main.cpp:33
        break;
    826c:	ea000009 	b	8298 <_Z8prep_msgPcPKc+0x6c>
/Users/winterji/Desktop/FAV/Navazujici/OS/semestralka-kiv-os/sources/userspace/slave_task/main.cpp:35
    case CI2C_Mode::Slave:
        strncpy(buff, "SLAVE: ", 7);
    8270:	e3a02007 	mov	r2, #7
    8274:	e59f1054 	ldr	r1, [pc, #84]	; 82d0 <_Z8prep_msgPcPKc+0xa4>
    8278:	e51b0010 	ldr	r0, [fp, #-16]
    827c:	eb0004c7 	bl	95a0 <_Z7strncpyPcPKci>
/Users/winterji/Desktop/FAV/Navazujici/OS/semestralka-kiv-os/sources/userspace/slave_task/main.cpp:36
        break;
    8280:	ea000004 	b	8298 <_Z8prep_msgPcPKc+0x6c>
/Users/winterji/Desktop/FAV/Navazujici/OS/semestralka-kiv-os/sources/userspace/slave_task/main.cpp:38
    default:
        strncpy(buff, "UNSET: ", 7);
    8284:	e3a02007 	mov	r2, #7
    8288:	e59f1044 	ldr	r1, [pc, #68]	; 82d4 <_Z8prep_msgPcPKc+0xa8>
    828c:	e51b0010 	ldr	r0, [fp, #-16]
    8290:	eb0004c2 	bl	95a0 <_Z7strncpyPcPKci>
/Users/winterji/Desktop/FAV/Navazujici/OS/semestralka-kiv-os/sources/userspace/slave_task/main.cpp:39
        break;
    8294:	e320f000 	nop	{0}
/Users/winterji/Desktop/FAV/Navazujici/OS/semestralka-kiv-os/sources/userspace/slave_task/main.cpp:42
    }
    
    strncpy(buff + 7, msg, strlen(msg));
    8298:	e51b3010 	ldr	r3, [fp, #-16]
    829c:	e2834007 	add	r4, r3, #7
    82a0:	e51b0014 	ldr	r0, [fp, #-20]	; 0xffffffec
    82a4:	eb000518 	bl	970c <_Z6strlenPKc>
    82a8:	e1a03000 	mov	r3, r0
    82ac:	e1a02003 	mov	r2, r3
    82b0:	e51b1014 	ldr	r1, [fp, #-20]	; 0xffffffec
    82b4:	e1a00004 	mov	r0, r4
    82b8:	eb0004b8 	bl	95a0 <_Z7strncpyPcPKci>
/Users/winterji/Desktop/FAV/Navazujici/OS/semestralka-kiv-os/sources/userspace/slave_task/main.cpp:43
}
    82bc:	e320f000 	nop	{0}
    82c0:	e24bd008 	sub	sp, fp, #8
    82c4:	e8bd8810 	pop	{r4, fp, pc}
    82c8:	00009ce8 	andeq	r9, r0, r8, ror #25
    82cc:	00009b6c 	andeq	r9, r0, ip, ror #22
    82d0:	00009b78 	andeq	r9, r0, r8, ror fp
    82d4:	00009b80 	andeq	r9, r0, r0, lsl #23

000082d8 <_Z3logPKc>:
_Z3logPKc():
/Users/winterji/Desktop/FAV/Navazujici/OS/semestralka-kiv-os/sources/userspace/slave_task/main.cpp:46

void log(const char* msg)
{
    82d8:	e92d49f0 	push	{r4, r5, r6, r7, r8, fp, lr}
    82dc:	e28db018 	add	fp, sp, #24
    82e0:	e24dd014 	sub	sp, sp, #20
    82e4:	e50b0028 	str	r0, [fp, #-40]	; 0xffffffd8
/Users/winterji/Desktop/FAV/Navazujici/OS/semestralka-kiv-os/sources/userspace/slave_task/main.cpp:49
    char new_buff[strlen(msg) + 7];
    prep_msg(new_buff, msg);
    write(log_fd, new_buff, strlen(msg)+7);
    82e8:	e1a0300d 	mov	r3, sp
    82ec:	e1a08003 	mov	r8, r3
/Users/winterji/Desktop/FAV/Navazujici/OS/semestralka-kiv-os/sources/userspace/slave_task/main.cpp:47
    char new_buff[strlen(msg) + 7];
    82f0:	e51b0028 	ldr	r0, [fp, #-40]	; 0xffffffd8
    82f4:	eb000504 	bl	970c <_Z6strlenPKc>
    82f8:	e1a03000 	mov	r3, r0
    82fc:	e2831006 	add	r1, r3, #6
    8300:	e50b1020 	str	r1, [fp, #-32]	; 0xffffffe0
    8304:	e1a03001 	mov	r3, r1
    8308:	e2833001 	add	r3, r3, #1
    830c:	e3a02000 	mov	r2, #0
    8310:	e1a06003 	mov	r6, r3
    8314:	e1a07002 	mov	r7, r2
    8318:	e3a02000 	mov	r2, #0
    831c:	e3a03000 	mov	r3, #0
    8320:	e1a03187 	lsl	r3, r7, #3
    8324:	e1833ea6 	orr	r3, r3, r6, lsr #29
    8328:	e1a02186 	lsl	r2, r6, #3
    832c:	e1a03001 	mov	r3, r1
    8330:	e2833001 	add	r3, r3, #1
    8334:	e3a02000 	mov	r2, #0
    8338:	e1a04003 	mov	r4, r3
    833c:	e1a05002 	mov	r5, r2
    8340:	e3a02000 	mov	r2, #0
    8344:	e3a03000 	mov	r3, #0
    8348:	e1a03185 	lsl	r3, r5, #3
    834c:	e1833ea4 	orr	r3, r3, r4, lsr #29
    8350:	e1a02184 	lsl	r2, r4, #3
    8354:	e1a03001 	mov	r3, r1
    8358:	e2833001 	add	r3, r3, #1
    835c:	e2833007 	add	r3, r3, #7
    8360:	e1a031a3 	lsr	r3, r3, #3
    8364:	e1a03183 	lsl	r3, r3, #3
    8368:	e04dd003 	sub	sp, sp, r3
    836c:	e1a0300d 	mov	r3, sp
    8370:	e2833000 	add	r3, r3, #0
    8374:	e50b3024 	str	r3, [fp, #-36]	; 0xffffffdc
/Users/winterji/Desktop/FAV/Navazujici/OS/semestralka-kiv-os/sources/userspace/slave_task/main.cpp:48
    prep_msg(new_buff, msg);
    8378:	e51b1028 	ldr	r1, [fp, #-40]	; 0xffffffd8
    837c:	e51b0024 	ldr	r0, [fp, #-36]	; 0xffffffdc
    8380:	ebffffa9 	bl	822c <_Z8prep_msgPcPKc>
/Users/winterji/Desktop/FAV/Navazujici/OS/semestralka-kiv-os/sources/userspace/slave_task/main.cpp:49
    write(log_fd, new_buff, strlen(msg)+7);
    8384:	e59f3030 	ldr	r3, [pc, #48]	; 83bc <_Z3logPKc+0xe4>
    8388:	e5934000 	ldr	r4, [r3]
    838c:	e51b0028 	ldr	r0, [fp, #-40]	; 0xffffffd8
    8390:	eb0004dd 	bl	970c <_Z6strlenPKc>
    8394:	e1a03000 	mov	r3, r0
    8398:	e2833007 	add	r3, r3, #7
    839c:	e1a02003 	mov	r2, r3
    83a0:	e51b1024 	ldr	r1, [fp, #-36]	; 0xffffffdc
    83a4:	e1a00004 	mov	r0, r4
    83a8:	eb00027e 	bl	8da8 <_Z5writejPKcj>
    83ac:	e1a0d008 	mov	sp, r8
/Users/winterji/Desktop/FAV/Navazujici/OS/semestralka-kiv-os/sources/userspace/slave_task/main.cpp:50
}
    83b0:	e320f000 	nop	{0}
    83b4:	e24bd018 	sub	sp, fp, #24
    83b8:	e8bd89f0 	pop	{r4, r5, r6, r7, r8, fp, pc}
    83bc:	00009cf0 	strdeq	r9, [r0], -r0

000083c0 <_Z3logj>:
_Z3logj():
/Users/winterji/Desktop/FAV/Navazujici/OS/semestralka-kiv-os/sources/userspace/slave_task/main.cpp:52

void log(const uint32_t value) {
    83c0:	e92d4810 	push	{r4, fp, lr}
    83c4:	e28db008 	add	fp, sp, #8
    83c8:	e24dd04c 	sub	sp, sp, #76	; 0x4c
    83cc:	e50b0050 	str	r0, [fp, #-80]	; 0xffffffb0
/Users/winterji/Desktop/FAV/Navazujici/OS/semestralka-kiv-os/sources/userspace/slave_task/main.cpp:54
    char buff[32], pom[32];
    itoa(value, pom, 10);
    83d0:	e24b304c 	sub	r3, fp, #76	; 0x4c
    83d4:	e3a0200a 	mov	r2, #10
    83d8:	e1a01003 	mov	r1, r3
    83dc:	e51b0050 	ldr	r0, [fp, #-80]	; 0xffffffb0
    83e0:	eb000345 	bl	90fc <_Z4itoajPcj>
/Users/winterji/Desktop/FAV/Navazujici/OS/semestralka-kiv-os/sources/userspace/slave_task/main.cpp:55
    prep_msg(buff, pom);
    83e4:	e24b204c 	sub	r2, fp, #76	; 0x4c
    83e8:	e24b302c 	sub	r3, fp, #44	; 0x2c
    83ec:	e1a01002 	mov	r1, r2
    83f0:	e1a00003 	mov	r0, r3
    83f4:	ebffff8c 	bl	822c <_Z8prep_msgPcPKc>
/Users/winterji/Desktop/FAV/Navazujici/OS/semestralka-kiv-os/sources/userspace/slave_task/main.cpp:56
    write(log_fd, buff, strlen(buff));
    83f8:	e59f3030 	ldr	r3, [pc, #48]	; 8430 <_Z3logj+0x70>
    83fc:	e5934000 	ldr	r4, [r3]
    8400:	e24b302c 	sub	r3, fp, #44	; 0x2c
    8404:	e1a00003 	mov	r0, r3
    8408:	eb0004bf 	bl	970c <_Z6strlenPKc>
    840c:	e1a03000 	mov	r3, r0
    8410:	e1a02003 	mov	r2, r3
    8414:	e24b302c 	sub	r3, fp, #44	; 0x2c
    8418:	e1a01003 	mov	r1, r3
    841c:	e1a00004 	mov	r0, r4
    8420:	eb000260 	bl	8da8 <_Z5writejPKcj>
/Users/winterji/Desktop/FAV/Navazujici/OS/semestralka-kiv-os/sources/userspace/slave_task/main.cpp:57
}
    8424:	e320f000 	nop	{0}
    8428:	e24bd008 	sub	sp, fp, #8
    842c:	e8bd8810 	pop	{r4, fp, pc}
    8430:	00009cf0 	strdeq	r9, [r0], -r0

00008434 <_Z9send_dataf>:
_Z9send_dataf():
/Users/winterji/Desktop/FAV/Navazujici/OS/semestralka-kiv-os/sources/userspace/slave_task/main.cpp:60

void send_data(const float value)
{
    8434:	e92d4800 	push	{fp, lr}
    8438:	e28db004 	add	fp, sp, #4
    843c:	e24dd018 	sub	sp, sp, #24
    8440:	ed0b0a06 	vstr	s0, [fp, #-24]	; 0xffffffe8
/Users/winterji/Desktop/FAV/Navazujici/OS/semestralka-kiv-os/sources/userspace/slave_task/main.cpp:61
    float next_predict = -1.0f;
    8444:	e59f30d8 	ldr	r3, [pc, #216]	; 8524 <_Z9send_dataf+0xf0>
    8448:	e50b3008 	str	r3, [fp, #-8]
/Users/winterji/Desktop/FAV/Navazujici/OS/semestralka-kiv-os/sources/userspace/slave_task/main.cpp:63
    char msg[6];
    if (value < LOWER_BOUND || value > UPPER_BOUND)
    844c:	ed5b7a06 	vldr	s15, [fp, #-24]	; 0xffffffe8
    8450:	ed9f7a31 	vldr	s14, [pc, #196]	; 851c <_Z9send_dataf+0xe8>
    8454:	eef47ac7 	vcmpe.f32	s15, s14
    8458:	eef1fa10 	vmrs	APSR_nzcv, fpscr
    845c:	4a000004 	bmi	8474 <_Z9send_dataf+0x40>
/Users/winterji/Desktop/FAV/Navazujici/OS/semestralka-kiv-os/sources/userspace/slave_task/main.cpp:63 (discriminator 1)
    8460:	ed5b7a06 	vldr	s15, [fp, #-24]	; 0xffffffe8
    8464:	ed9f7a2d 	vldr	s14, [pc, #180]	; 8520 <_Z9send_dataf+0xec>
    8468:	eef47ac7 	vcmpe.f32	s15, s14
    846c:	eef1fa10 	vmrs	APSR_nzcv, fpscr
    8470:	da000002 	ble	8480 <_Z9send_dataf+0x4c>
/Users/winterji/Desktop/FAV/Navazujici/OS/semestralka-kiv-os/sources/userspace/slave_task/main.cpp:64
        msg[0] = 'd';
    8474:	e3a03064 	mov	r3, #100	; 0x64
    8478:	e54b3010 	strb	r3, [fp, #-16]
    847c:	ea000015 	b	84d8 <_Z9send_dataf+0xa4>
/Users/winterji/Desktop/FAV/Navazujici/OS/semestralka-kiv-os/sources/userspace/slave_task/main.cpp:67
    else {
        // doplnit vypocet trendu
        next_predict = value + (value - prev_value);
    8480:	ed1b7a06 	vldr	s14, [fp, #-24]	; 0xffffffe8
    8484:	e59f309c 	ldr	r3, [pc, #156]	; 8528 <_Z9send_dataf+0xf4>
    8488:	edd37a00 	vldr	s15, [r3]
    848c:	ee377a67 	vsub.f32	s14, s14, s15
    8490:	ed5b7a06 	vldr	s15, [fp, #-24]	; 0xffffffe8
    8494:	ee777a27 	vadd.f32	s15, s14, s15
    8498:	ed4b7a02 	vstr	s15, [fp, #-8]
/Users/winterji/Desktop/FAV/Navazujici/OS/semestralka-kiv-os/sources/userspace/slave_task/main.cpp:68
        if (next_predict < LOWER_BOUND || next_predict > UPPER_BOUND) {
    849c:	ed5b7a02 	vldr	s15, [fp, #-8]
    84a0:	ed9f7a1d 	vldr	s14, [pc, #116]	; 851c <_Z9send_dataf+0xe8>
    84a4:	eef47ac7 	vcmpe.f32	s15, s14
    84a8:	eef1fa10 	vmrs	APSR_nzcv, fpscr
    84ac:	4a000004 	bmi	84c4 <_Z9send_dataf+0x90>
/Users/winterji/Desktop/FAV/Navazujici/OS/semestralka-kiv-os/sources/userspace/slave_task/main.cpp:68 (discriminator 1)
    84b0:	ed5b7a02 	vldr	s15, [fp, #-8]
    84b4:	ed9f7a19 	vldr	s14, [pc, #100]	; 8520 <_Z9send_dataf+0xec>
    84b8:	eef47ac7 	vcmpe.f32	s15, s14
    84bc:	eef1fa10 	vmrs	APSR_nzcv, fpscr
    84c0:	da000002 	ble	84d0 <_Z9send_dataf+0x9c>
/Users/winterji/Desktop/FAV/Navazujici/OS/semestralka-kiv-os/sources/userspace/slave_task/main.cpp:69
            msg[0] = 't';
    84c4:	e3a03074 	mov	r3, #116	; 0x74
    84c8:	e54b3010 	strb	r3, [fp, #-16]
    84cc:	ea000001 	b	84d8 <_Z9send_dataf+0xa4>
/Users/winterji/Desktop/FAV/Navazujici/OS/semestralka-kiv-os/sources/userspace/slave_task/main.cpp:72
        }
        else {
            msg[0] = 'v';
    84d0:	e3a03076 	mov	r3, #118	; 0x76
    84d4:	e54b3010 	strb	r3, [fp, #-16]
/Users/winterji/Desktop/FAV/Navazujici/OS/semestralka-kiv-os/sources/userspace/slave_task/main.cpp:75
        }
    }
    memcpy(&value, msg + 1, 4);
    84d8:	e24b3010 	sub	r3, fp, #16
    84dc:	e2833001 	add	r3, r3, #1
    84e0:	e24b0018 	sub	r0, fp, #24
    84e4:	e3a02004 	mov	r2, #4
    84e8:	e1a01003 	mov	r1, r3
    84ec:	eb0004b5 	bl	97c8 <_Z6memcpyPKvPvi>
/Users/winterji/Desktop/FAV/Navazujici/OS/semestralka-kiv-os/sources/userspace/slave_task/main.cpp:76
    msg[5] = '\0';
    84f0:	e3a03000 	mov	r3, #0
    84f4:	e54b300b 	strb	r3, [fp, #-11]
/Users/winterji/Desktop/FAV/Navazujici/OS/semestralka-kiv-os/sources/userspace/slave_task/main.cpp:77
    write(i2c_fd, msg, 6);
    84f8:	e59f302c 	ldr	r3, [pc, #44]	; 852c <_Z9send_dataf+0xf8>
    84fc:	e5933000 	ldr	r3, [r3]
    8500:	e24b1010 	sub	r1, fp, #16
    8504:	e3a02006 	mov	r2, #6
    8508:	e1a00003 	mov	r0, r3
    850c:	eb000225 	bl	8da8 <_Z5writejPKcj>
/Users/winterji/Desktop/FAV/Navazujici/OS/semestralka-kiv-os/sources/userspace/slave_task/main.cpp:78
}
    8510:	e320f000 	nop	{0}
    8514:	e24bd004 	sub	sp, fp, #4
    8518:	e8bd8800 	pop	{fp, pc}
    851c:	40600000 	rsbmi	r0, r0, r0
    8520:	41300000 	teqmi	r0, r0
    8524:	bf800000 	svclt	0x00800000
    8528:	00009cec 	andeq	r9, r0, ip, ror #25
    852c:	00009cf8 	strdeq	r9, [r0], -r8

00008530 <_Z10send_valuef>:
_Z10send_valuef():
/Users/winterji/Desktop/FAV/Navazujici/OS/semestralka-kiv-os/sources/userspace/slave_task/main.cpp:80

void send_value(const float value) {
    8530:	e92d4800 	push	{fp, lr}
    8534:	e28db004 	add	fp, sp, #4
    8538:	e24dd030 	sub	sp, sp, #48	; 0x30
    853c:	ed0b0a0c 	vstr	s0, [fp, #-48]	; 0xffffffd0
/Users/winterji/Desktop/FAV/Navazujici/OS/semestralka-kiv-os/sources/userspace/slave_task/main.cpp:82
    char pom[5], buff[32];
    bzero(pom, 5);
    8540:	e24b300c 	sub	r3, fp, #12
    8544:	e3a01005 	mov	r1, #5
    8548:	e1a00003 	mov	r0, r3
    854c:	eb000483 	bl	9760 <_Z5bzeroPvi>
/Users/winterji/Desktop/FAV/Navazujici/OS/semestralka-kiv-os/sources/userspace/slave_task/main.cpp:83
    bzero(buff, 32);
    8550:	e24b302c 	sub	r3, fp, #44	; 0x2c
    8554:	e3a01020 	mov	r1, #32
    8558:	e1a00003 	mov	r0, r3
    855c:	eb00047f 	bl	9760 <_Z5bzeroPvi>
/Users/winterji/Desktop/FAV/Navazujici/OS/semestralka-kiv-os/sources/userspace/slave_task/main.cpp:84
    strncpy(buff, "Sending: ", 15);
    8560:	e24b302c 	sub	r3, fp, #44	; 0x2c
    8564:	e3a0200f 	mov	r2, #15
    8568:	e59f105c 	ldr	r1, [pc, #92]	; 85cc <_Z10send_valuef+0x9c>
    856c:	e1a00003 	mov	r0, r3
    8570:	eb00040a 	bl	95a0 <_Z7strncpyPcPKci>
/Users/winterji/Desktop/FAV/Navazujici/OS/semestralka-kiv-os/sources/userspace/slave_task/main.cpp:85
    ftoa(value, pom, 2);
    8574:	e24b300c 	sub	r3, fp, #12
    8578:	e3a01002 	mov	r1, #2
    857c:	e1a00003 	mov	r0, r3
    8580:	ed1b0a0c 	vldr	s0, [fp, #-48]	; 0xffffffd0
    8584:	eb000360 	bl	930c <_Z4ftoafPcj>
/Users/winterji/Desktop/FAV/Navazujici/OS/semestralka-kiv-os/sources/userspace/slave_task/main.cpp:86
    concat(buff, pom);
    8588:	e24b200c 	sub	r2, fp, #12
    858c:	e24b302c 	sub	r3, fp, #44	; 0x2c
    8590:	e1a01002 	mov	r1, r2
    8594:	e1a00003 	mov	r0, r3
    8598:	eb0004aa 	bl	9848 <_Z6concatPcPKc>
/Users/winterji/Desktop/FAV/Navazujici/OS/semestralka-kiv-os/sources/userspace/slave_task/main.cpp:87
    concat(buff, "\n");
    859c:	e24b302c 	sub	r3, fp, #44	; 0x2c
    85a0:	e59f1028 	ldr	r1, [pc, #40]	; 85d0 <_Z10send_valuef+0xa0>
    85a4:	e1a00003 	mov	r0, r3
    85a8:	eb0004a6 	bl	9848 <_Z6concatPcPKc>
/Users/winterji/Desktop/FAV/Navazujici/OS/semestralka-kiv-os/sources/userspace/slave_task/main.cpp:88
    log(buff);
    85ac:	e24b302c 	sub	r3, fp, #44	; 0x2c
    85b0:	e1a00003 	mov	r0, r3
    85b4:	ebffff47 	bl	82d8 <_Z3logPKc>
/Users/winterji/Desktop/FAV/Navazujici/OS/semestralka-kiv-os/sources/userspace/slave_task/main.cpp:89
    send_data(value);
    85b8:	ed1b0a0c 	vldr	s0, [fp, #-48]	; 0xffffffd0
    85bc:	ebffff9c 	bl	8434 <_Z9send_dataf>
/Users/winterji/Desktop/FAV/Navazujici/OS/semestralka-kiv-os/sources/userspace/slave_task/main.cpp:90
}
    85c0:	e320f000 	nop	{0}
    85c4:	e24bd004 	sub	sp, fp, #4
    85c8:	e8bd8800 	pop	{fp, pc}
    85cc:	00009b88 	andeq	r9, r0, r8, lsl #23
    85d0:	00009b94 	muleq	r0, r4, fp

000085d4 <_Z11decide_role9CI2C_ModePc>:
_Z11decide_role9CI2C_ModePc():
/Users/winterji/Desktop/FAV/Navazujici/OS/semestralka-kiv-os/sources/userspace/slave_task/main.cpp:93

CI2C_Mode decide_role(CI2C_Mode my_role, char* other_role_buff)
{
    85d4:	e92d4800 	push	{fp, lr}
    85d8:	e28db004 	add	fp, sp, #4
    85dc:	e24dd010 	sub	sp, sp, #16
    85e0:	e50b0010 	str	r0, [fp, #-16]
    85e4:	e50b1014 	str	r1, [fp, #-20]	; 0xffffffec
/Users/winterji/Desktop/FAV/Navazujici/OS/semestralka-kiv-os/sources/userspace/slave_task/main.cpp:94
    CI2C_Mode other_role = CI2C_Mode::Undefined;
    85e8:	e3a03002 	mov	r3, #2
    85ec:	e50b3008 	str	r3, [fp, #-8]
/Users/winterji/Desktop/FAV/Navazujici/OS/semestralka-kiv-os/sources/userspace/slave_task/main.cpp:95
    if (strncmp(other_role_buff, "mst", 3) == 0)
    85f0:	e3a02003 	mov	r2, #3
    85f4:	e59f10c4 	ldr	r1, [pc, #196]	; 86c0 <_Z11decide_role9CI2C_ModePc+0xec>
    85f8:	e51b0014 	ldr	r0, [fp, #-20]	; 0xffffffec
    85fc:	eb000417 	bl	9660 <_Z7strncmpPKcS0_i>
    8600:	e1a03000 	mov	r3, r0
    8604:	e3530000 	cmp	r3, #0
    8608:	03a03001 	moveq	r3, #1
    860c:	13a03000 	movne	r3, #0
    8610:	e6ef3073 	uxtb	r3, r3
    8614:	e3530000 	cmp	r3, #0
    8618:	0a000002 	beq	8628 <_Z11decide_role9CI2C_ModePc+0x54>
/Users/winterji/Desktop/FAV/Navazujici/OS/semestralka-kiv-os/sources/userspace/slave_task/main.cpp:97
    {
        other_role = CI2C_Mode::Master;
    861c:	e3a03000 	mov	r3, #0
    8620:	e50b3008 	str	r3, [fp, #-8]
    8624:	ea00000c 	b	865c <_Z11decide_role9CI2C_ModePc+0x88>
/Users/winterji/Desktop/FAV/Navazujici/OS/semestralka-kiv-os/sources/userspace/slave_task/main.cpp:99
    }
    else if (strncmp(other_role_buff, "slv", 3) == 0)
    8628:	e3a02003 	mov	r2, #3
    862c:	e59f1090 	ldr	r1, [pc, #144]	; 86c4 <_Z11decide_role9CI2C_ModePc+0xf0>
    8630:	e51b0014 	ldr	r0, [fp, #-20]	; 0xffffffec
    8634:	eb000409 	bl	9660 <_Z7strncmpPKcS0_i>
    8638:	e1a03000 	mov	r3, r0
    863c:	e3530000 	cmp	r3, #0
    8640:	03a03001 	moveq	r3, #1
    8644:	13a03000 	movne	r3, #0
    8648:	e6ef3073 	uxtb	r3, r3
    864c:	e3530000 	cmp	r3, #0
    8650:	0a000001 	beq	865c <_Z11decide_role9CI2C_ModePc+0x88>
/Users/winterji/Desktop/FAV/Navazujici/OS/semestralka-kiv-os/sources/userspace/slave_task/main.cpp:101
    {
        other_role = CI2C_Mode::Slave;
    8654:	e3a03001 	mov	r3, #1
    8658:	e50b3008 	str	r3, [fp, #-8]
/Users/winterji/Desktop/FAV/Navazujici/OS/semestralka-kiv-os/sources/userspace/slave_task/main.cpp:104
    }

    if (my_role == CI2C_Mode::Undefined)
    865c:	e51b3010 	ldr	r3, [fp, #-16]
    8660:	e3530002 	cmp	r3, #2
    8664:	1a000009 	bne	8690 <_Z11decide_role9CI2C_ModePc+0xbc>
/Users/winterji/Desktop/FAV/Navazujici/OS/semestralka-kiv-os/sources/userspace/slave_task/main.cpp:106
    {
        if (other_role == CI2C_Mode::Master)
    8668:	e51b3008 	ldr	r3, [fp, #-8]
    866c:	e3530000 	cmp	r3, #0
    8670:	1a000001 	bne	867c <_Z11decide_role9CI2C_ModePc+0xa8>
/Users/winterji/Desktop/FAV/Navazujici/OS/semestralka-kiv-os/sources/userspace/slave_task/main.cpp:108
        {
            return CI2C_Mode::Slave;
    8674:	e3a03001 	mov	r3, #1
    8678:	ea00000d 	b	86b4 <_Z11decide_role9CI2C_ModePc+0xe0>
/Users/winterji/Desktop/FAV/Navazujici/OS/semestralka-kiv-os/sources/userspace/slave_task/main.cpp:110
        }
        else if (other_role == CI2C_Mode::Slave)
    867c:	e51b3008 	ldr	r3, [fp, #-8]
    8680:	e3530001 	cmp	r3, #1
    8684:	1a000009 	bne	86b0 <_Z11decide_role9CI2C_ModePc+0xdc>
/Users/winterji/Desktop/FAV/Navazujici/OS/semestralka-kiv-os/sources/userspace/slave_task/main.cpp:112
        {
            return CI2C_Mode::Master;
    8688:	e3a03000 	mov	r3, #0
    868c:	ea000008 	b	86b4 <_Z11decide_role9CI2C_ModePc+0xe0>
/Users/winterji/Desktop/FAV/Navazujici/OS/semestralka-kiv-os/sources/userspace/slave_task/main.cpp:116
        }
    }
    else {
        if (my_role == other_role)
    8690:	e51b2010 	ldr	r2, [fp, #-16]
    8694:	e51b3008 	ldr	r3, [fp, #-8]
    8698:	e1520003 	cmp	r2, r3
    869c:	1a000003 	bne	86b0 <_Z11decide_role9CI2C_ModePc+0xdc>
/Users/winterji/Desktop/FAV/Navazujici/OS/semestralka-kiv-os/sources/userspace/slave_task/main.cpp:118
        {
            log("Desired roles are the same\n");
    86a0:	e59f0020 	ldr	r0, [pc, #32]	; 86c8 <_Z11decide_role9CI2C_ModePc+0xf4>
    86a4:	ebffff0b 	bl	82d8 <_Z3logPKc>
/Users/winterji/Desktop/FAV/Navazujici/OS/semestralka-kiv-os/sources/userspace/slave_task/main.cpp:122
            if (ADDRESS < TARGET_ADDRESS)
                return CI2C_Mode::Master;
            else
                return CI2C_Mode::Slave;
    86a8:	e3a03001 	mov	r3, #1
    86ac:	ea000000 	b	86b4 <_Z11decide_role9CI2C_ModePc+0xe0>
/Users/winterji/Desktop/FAV/Navazujici/OS/semestralka-kiv-os/sources/userspace/slave_task/main.cpp:125
        }
    }
    return my_role;
    86b0:	e51b3010 	ldr	r3, [fp, #-16]
/Users/winterji/Desktop/FAV/Navazujici/OS/semestralka-kiv-os/sources/userspace/slave_task/main.cpp:126
}
    86b4:	e1a00003 	mov	r0, r3
    86b8:	e24bd004 	sub	sp, fp, #4
    86bc:	e8bd8800 	pop	{fp, pc}
    86c0:	00009b98 	muleq	r0, r8, fp
    86c4:	00009b9c 	muleq	r0, ip, fp
    86c8:	00009ba0 	andeq	r9, r0, r0, lsr #23

000086cc <_Z9set_roles9CI2C_Mode>:
_Z9set_roles9CI2C_Mode():
/Users/winterji/Desktop/FAV/Navazujici/OS/semestralka-kiv-os/sources/userspace/slave_task/main.cpp:129

bool set_roles(CI2C_Mode desired_role)
{
    86cc:	e92d4800 	push	{fp, lr}
    86d0:	e28db004 	add	fp, sp, #4
    86d4:	e24dd050 	sub	sp, sp, #80	; 0x50
    86d8:	e50b0050 	str	r0, [fp, #-80]	; 0xffffffb0
/Users/winterji/Desktop/FAV/Navazujici/OS/semestralka-kiv-os/sources/userspace/slave_task/main.cpp:131
    char role[4], buff[32], log_msg[32];
    bzero(role, 4);
    86dc:	e24b3008 	sub	r3, fp, #8
    86e0:	e3a01004 	mov	r1, #4
    86e4:	e1a00003 	mov	r0, r3
    86e8:	eb00041c 	bl	9760 <_Z5bzeroPvi>
/Users/winterji/Desktop/FAV/Navazujici/OS/semestralka-kiv-os/sources/userspace/slave_task/main.cpp:132
    bzero(buff, 32);
    86ec:	e24b3028 	sub	r3, fp, #40	; 0x28
    86f0:	e3a01020 	mov	r1, #32
    86f4:	e1a00003 	mov	r0, r3
    86f8:	eb000418 	bl	9760 <_Z5bzeroPvi>
/Users/winterji/Desktop/FAV/Navazujici/OS/semestralka-kiv-os/sources/userspace/slave_task/main.cpp:133
    bzero(log_msg, 32);
    86fc:	e24b3048 	sub	r3, fp, #72	; 0x48
    8700:	e3a01020 	mov	r1, #32
    8704:	e1a00003 	mov	r0, r3
    8708:	eb000414 	bl	9760 <_Z5bzeroPvi>
/Users/winterji/Desktop/FAV/Navazujici/OS/semestralka-kiv-os/sources/userspace/slave_task/main.cpp:134
    switch (desired_role)
    870c:	e51b3050 	ldr	r3, [fp, #-80]	; 0xffffffb0
    8710:	e3530000 	cmp	r3, #0
    8714:	0a000003 	beq	8728 <_Z9set_roles9CI2C_Mode+0x5c>
    8718:	e51b3050 	ldr	r3, [fp, #-80]	; 0xffffffb0
    871c:	e3530001 	cmp	r3, #1
    8720:	0a000006 	beq	8740 <_Z9set_roles9CI2C_Mode+0x74>
    8724:	ea00000b 	b	8758 <_Z9set_roles9CI2C_Mode+0x8c>
/Users/winterji/Desktop/FAV/Navazujici/OS/semestralka-kiv-os/sources/userspace/slave_task/main.cpp:137
    {
    case CI2C_Mode::Master:
        strncpy(role, "mst", 3);
    8728:	e24b3008 	sub	r3, fp, #8
    872c:	e3a02003 	mov	r2, #3
    8730:	e59f1148 	ldr	r1, [pc, #328]	; 8880 <_Z9set_roles9CI2C_Mode+0x1b4>
    8734:	e1a00003 	mov	r0, r3
    8738:	eb000398 	bl	95a0 <_Z7strncpyPcPKci>
/Users/winterji/Desktop/FAV/Navazujici/OS/semestralka-kiv-os/sources/userspace/slave_task/main.cpp:138
        break;
    873c:	ea00000b 	b	8770 <_Z9set_roles9CI2C_Mode+0xa4>
/Users/winterji/Desktop/FAV/Navazujici/OS/semestralka-kiv-os/sources/userspace/slave_task/main.cpp:140
    case CI2C_Mode::Slave:
        strncpy(role, "slv", 3);
    8740:	e24b3008 	sub	r3, fp, #8
    8744:	e3a02003 	mov	r2, #3
    8748:	e59f1134 	ldr	r1, [pc, #308]	; 8884 <_Z9set_roles9CI2C_Mode+0x1b8>
    874c:	e1a00003 	mov	r0, r3
    8750:	eb000392 	bl	95a0 <_Z7strncpyPcPKci>
/Users/winterji/Desktop/FAV/Navazujici/OS/semestralka-kiv-os/sources/userspace/slave_task/main.cpp:141
        break;
    8754:	ea000005 	b	8770 <_Z9set_roles9CI2C_Mode+0xa4>
/Users/winterji/Desktop/FAV/Navazujici/OS/semestralka-kiv-os/sources/userspace/slave_task/main.cpp:143
    default:
        strncpy(role, "slv", 3);
    8758:	e24b3008 	sub	r3, fp, #8
    875c:	e3a02003 	mov	r2, #3
    8760:	e59f111c 	ldr	r1, [pc, #284]	; 8884 <_Z9set_roles9CI2C_Mode+0x1b8>
    8764:	e1a00003 	mov	r0, r3
    8768:	eb00038c 	bl	95a0 <_Z7strncpyPcPKci>
/Users/winterji/Desktop/FAV/Navazujici/OS/semestralka-kiv-os/sources/userspace/slave_task/main.cpp:144
        break;
    876c:	e320f000 	nop	{0}
/Users/winterji/Desktop/FAV/Navazujici/OS/semestralka-kiv-os/sources/userspace/slave_task/main.cpp:147
    }

    write(i2c_fd, role, 4);
    8770:	e59f3110 	ldr	r3, [pc, #272]	; 8888 <_Z9set_roles9CI2C_Mode+0x1bc>
    8774:	e5933000 	ldr	r3, [r3]
    8778:	e24b1008 	sub	r1, fp, #8
    877c:	e3a02004 	mov	r2, #4
    8780:	e1a00003 	mov	r0, r3
    8784:	eb000187 	bl	8da8 <_Z5writejPKcj>
/Users/winterji/Desktop/FAV/Navazujici/OS/semestralka-kiv-os/sources/userspace/slave_task/main.cpp:148
    while (strlen(buff) == 0) {
    8788:	e24b3028 	sub	r3, fp, #40	; 0x28
    878c:	e1a00003 	mov	r0, r3
    8790:	eb0003dd 	bl	970c <_Z6strlenPKc>
    8794:	e1a03000 	mov	r3, r0
    8798:	e3530000 	cmp	r3, #0
    879c:	03a03001 	moveq	r3, #1
    87a0:	13a03000 	movne	r3, #0
    87a4:	e6ef3073 	uxtb	r3, r3
    87a8:	e3530000 	cmp	r3, #0
    87ac:	0a000009 	beq	87d8 <_Z9set_roles9CI2C_Mode+0x10c>
/Users/winterji/Desktop/FAV/Navazujici/OS/semestralka-kiv-os/sources/userspace/slave_task/main.cpp:149
        read(i2c_fd, buff, 4);
    87b0:	e59f30d0 	ldr	r3, [pc, #208]	; 8888 <_Z9set_roles9CI2C_Mode+0x1bc>
    87b4:	e5933000 	ldr	r3, [r3]
    87b8:	e24b1028 	sub	r1, fp, #40	; 0x28
    87bc:	e3a02004 	mov	r2, #4
    87c0:	e1a00003 	mov	r0, r3
    87c4:	eb000163 	bl	8d58 <_Z4readjPcj>
/Users/winterji/Desktop/FAV/Navazujici/OS/semestralka-kiv-os/sources/userspace/slave_task/main.cpp:150
        sleep(0x100);
    87c8:	e3e01001 	mvn	r1, #1
    87cc:	e3a00c01 	mov	r0, #256	; 0x100
    87d0:	eb0001cc 	bl	8f08 <_Z5sleepjj>
/Users/winterji/Desktop/FAV/Navazujici/OS/semestralka-kiv-os/sources/userspace/slave_task/main.cpp:148
    while (strlen(buff) == 0) {
    87d4:	eaffffeb 	b	8788 <_Z9set_roles9CI2C_Mode+0xbc>
/Users/winterji/Desktop/FAV/Navazujici/OS/semestralka-kiv-os/sources/userspace/slave_task/main.cpp:153
    }

    agreed_role = decide_role(desired_role, buff);
    87d8:	e24b3028 	sub	r3, fp, #40	; 0x28
    87dc:	e1a01003 	mov	r1, r3
    87e0:	e51b0050 	ldr	r0, [fp, #-80]	; 0xffffffb0
    87e4:	ebffff7a 	bl	85d4 <_Z11decide_role9CI2C_ModePc>
    87e8:	e1a03000 	mov	r3, r0
    87ec:	e59f2098 	ldr	r2, [pc, #152]	; 888c <_Z9set_roles9CI2C_Mode+0x1c0>
    87f0:	e5823000 	str	r3, [r2]
/Users/winterji/Desktop/FAV/Navazujici/OS/semestralka-kiv-os/sources/userspace/slave_task/main.cpp:154
    strncpy(log_msg, "Roles set. I am ", 16);
    87f4:	e24b3048 	sub	r3, fp, #72	; 0x48
    87f8:	e3a02010 	mov	r2, #16
    87fc:	e59f108c 	ldr	r1, [pc, #140]	; 8890 <_Z9set_roles9CI2C_Mode+0x1c4>
    8800:	e1a00003 	mov	r0, r3
    8804:	eb000365 	bl	95a0 <_Z7strncpyPcPKci>
/Users/winterji/Desktop/FAV/Navazujici/OS/semestralka-kiv-os/sources/userspace/slave_task/main.cpp:155
    switch (agreed_role)
    8808:	e59f307c 	ldr	r3, [pc, #124]	; 888c <_Z9set_roles9CI2C_Mode+0x1c0>
    880c:	e5933000 	ldr	r3, [r3]
    8810:	e3530000 	cmp	r3, #0
    8814:	0a000002 	beq	8824 <_Z9set_roles9CI2C_Mode+0x158>
    8818:	e3530001 	cmp	r3, #1
    881c:	0a000005 	beq	8838 <_Z9set_roles9CI2C_Mode+0x16c>
    8820:	ea000009 	b	884c <_Z9set_roles9CI2C_Mode+0x180>
/Users/winterji/Desktop/FAV/Navazujici/OS/semestralka-kiv-os/sources/userspace/slave_task/main.cpp:158
    {
    case CI2C_Mode::Master:
        concat(log_msg, "Master\n");
    8824:	e24b3048 	sub	r3, fp, #72	; 0x48
    8828:	e59f1064 	ldr	r1, [pc, #100]	; 8894 <_Z9set_roles9CI2C_Mode+0x1c8>
    882c:	e1a00003 	mov	r0, r3
    8830:	eb000404 	bl	9848 <_Z6concatPcPKc>
/Users/winterji/Desktop/FAV/Navazujici/OS/semestralka-kiv-os/sources/userspace/slave_task/main.cpp:159
        break;
    8834:	ea000004 	b	884c <_Z9set_roles9CI2C_Mode+0x180>
/Users/winterji/Desktop/FAV/Navazujici/OS/semestralka-kiv-os/sources/userspace/slave_task/main.cpp:161
    case CI2C_Mode::Slave:
        concat(log_msg, "Slave\n");
    8838:	e24b3048 	sub	r3, fp, #72	; 0x48
    883c:	e59f1054 	ldr	r1, [pc, #84]	; 8898 <_Z9set_roles9CI2C_Mode+0x1cc>
    8840:	e1a00003 	mov	r0, r3
    8844:	eb0003ff 	bl	9848 <_Z6concatPcPKc>
/Users/winterji/Desktop/FAV/Navazujici/OS/semestralka-kiv-os/sources/userspace/slave_task/main.cpp:162
        break;
    8848:	e320f000 	nop	{0}
/Users/winterji/Desktop/FAV/Navazujici/OS/semestralka-kiv-os/sources/userspace/slave_task/main.cpp:164
    }
    log(log_msg);
    884c:	e24b3048 	sub	r3, fp, #72	; 0x48
    8850:	e1a00003 	mov	r0, r3
    8854:	ebfffe9f 	bl	82d8 <_Z3logPKc>
/Users/winterji/Desktop/FAV/Navazujici/OS/semestralka-kiv-os/sources/userspace/slave_task/main.cpp:165
    return agreed_role == desired_role;
    8858:	e59f302c 	ldr	r3, [pc, #44]	; 888c <_Z9set_roles9CI2C_Mode+0x1c0>
    885c:	e5933000 	ldr	r3, [r3]
    8860:	e51b2050 	ldr	r2, [fp, #-80]	; 0xffffffb0
    8864:	e1520003 	cmp	r2, r3
    8868:	03a03001 	moveq	r3, #1
    886c:	13a03000 	movne	r3, #0
    8870:	e6ef3073 	uxtb	r3, r3
/Users/winterji/Desktop/FAV/Navazujici/OS/semestralka-kiv-os/sources/userspace/slave_task/main.cpp:166
}
    8874:	e1a00003 	mov	r0, r3
    8878:	e24bd004 	sub	sp, fp, #4
    887c:	e8bd8800 	pop	{fp, pc}
    8880:	00009b98 	muleq	r0, r8, fp
    8884:	00009b9c 	muleq	r0, ip, fp
    8888:	00009cf8 	strdeq	r9, [r0], -r8
    888c:	00009ce8 	andeq	r9, r0, r8, ror #25
    8890:	00009bbc 			; <UNDEFINED> instruction: 0x00009bbc
    8894:	00009bd0 	ldrdeq	r9, [r0], -r0
    8898:	00009bd8 	ldrdeq	r9, [r0], -r8

0000889c <_Z11handle_datacf>:
_Z11handle_datacf():
/Users/winterji/Desktop/FAV/Navazujici/OS/semestralka-kiv-os/sources/userspace/slave_task/main.cpp:169

void handle_data(char value_state, float value)
{
    889c:	e92d4800 	push	{fp, lr}
    88a0:	e28db004 	add	fp, sp, #4
    88a4:	e24dd038 	sub	sp, sp, #56	; 0x38
    88a8:	e1a03000 	mov	r3, r0
    88ac:	ed0b0a0f 	vstr	s0, [fp, #-60]	; 0xffffffc4
    88b0:	e54b3035 	strb	r3, [fp, #-53]	; 0xffffffcb
/Users/winterji/Desktop/FAV/Navazujici/OS/semestralka-kiv-os/sources/userspace/slave_task/main.cpp:171
    char log_msg[32], value_str[16];
    bzero(log_msg, 32);
    88b4:	e24b3024 	sub	r3, fp, #36	; 0x24
    88b8:	e3a01020 	mov	r1, #32
    88bc:	e1a00003 	mov	r0, r3
    88c0:	eb0003a6 	bl	9760 <_Z5bzeroPvi>
/Users/winterji/Desktop/FAV/Navazujici/OS/semestralka-kiv-os/sources/userspace/slave_task/main.cpp:172
    bzero(value_str, 16);
    88c4:	e24b3034 	sub	r3, fp, #52	; 0x34
    88c8:	e3a01010 	mov	r1, #16
    88cc:	e1a00003 	mov	r0, r3
    88d0:	eb0003a2 	bl	9760 <_Z5bzeroPvi>
/Users/winterji/Desktop/FAV/Navazujici/OS/semestralka-kiv-os/sources/userspace/slave_task/main.cpp:173
    strncpy(log_msg, "Received ", 10);
    88d4:	e24b3024 	sub	r3, fp, #36	; 0x24
    88d8:	e3a0200a 	mov	r2, #10
    88dc:	e59f10b8 	ldr	r1, [pc, #184]	; 899c <_Z11handle_datacf+0x100>
    88e0:	e1a00003 	mov	r0, r3
    88e4:	eb00032d 	bl	95a0 <_Z7strncpyPcPKci>
/Users/winterji/Desktop/FAV/Navazujici/OS/semestralka-kiv-os/sources/userspace/slave_task/main.cpp:174
    ftoa(value, value_str, 2);
    88e8:	e24b3034 	sub	r3, fp, #52	; 0x34
    88ec:	e3a01002 	mov	r1, #2
    88f0:	e1a00003 	mov	r0, r3
    88f4:	ed1b0a0f 	vldr	s0, [fp, #-60]	; 0xffffffc4
    88f8:	eb000283 	bl	930c <_Z4ftoafPcj>
/Users/winterji/Desktop/FAV/Navazujici/OS/semestralka-kiv-os/sources/userspace/slave_task/main.cpp:175
    concat(log_msg, value_str);
    88fc:	e24b2034 	sub	r2, fp, #52	; 0x34
    8900:	e24b3024 	sub	r3, fp, #36	; 0x24
    8904:	e1a01002 	mov	r1, r2
    8908:	e1a00003 	mov	r0, r3
    890c:	eb0003cd 	bl	9848 <_Z6concatPcPKc>
/Users/winterji/Desktop/FAV/Navazujici/OS/semestralka-kiv-os/sources/userspace/slave_task/main.cpp:176
    switch (value_state)
    8910:	e55b3035 	ldrb	r3, [fp, #-53]	; 0xffffffcb
    8914:	e3530076 	cmp	r3, #118	; 0x76
    8918:	0a000006 	beq	8938 <_Z11handle_datacf+0x9c>
    891c:	e3530076 	cmp	r3, #118	; 0x76
    8920:	ca000013 	bgt	8974 <_Z11handle_datacf+0xd8>
    8924:	e3530064 	cmp	r3, #100	; 0x64
    8928:	0a000007 	beq	894c <_Z11handle_datacf+0xb0>
    892c:	e3530074 	cmp	r3, #116	; 0x74
    8930:	0a00000a 	beq	8960 <_Z11handle_datacf+0xc4>
    8934:	ea00000e 	b	8974 <_Z11handle_datacf+0xd8>
/Users/winterji/Desktop/FAV/Navazujici/OS/semestralka-kiv-os/sources/userspace/slave_task/main.cpp:180
    {
    case 'v':
        // vse v poradku
        concat(log_msg, " - OK");
    8938:	e24b3024 	sub	r3, fp, #36	; 0x24
    893c:	e59f105c 	ldr	r1, [pc, #92]	; 89a0 <_Z11handle_datacf+0x104>
    8940:	e1a00003 	mov	r0, r3
    8944:	eb0003bf 	bl	9848 <_Z6concatPcPKc>
/Users/winterji/Desktop/FAV/Navazujici/OS/semestralka-kiv-os/sources/userspace/slave_task/main.cpp:181
        break;
    8948:	ea000009 	b	8974 <_Z11handle_datacf+0xd8>
/Users/winterji/Desktop/FAV/Navazujici/OS/semestralka-kiv-os/sources/userspace/slave_task/main.cpp:184
    case 'd':
        // nebezpecna hodnota
        concat(log_msg, " - DANGER");
    894c:	e24b3024 	sub	r3, fp, #36	; 0x24
    8950:	e59f104c 	ldr	r1, [pc, #76]	; 89a4 <_Z11handle_datacf+0x108>
    8954:	e1a00003 	mov	r0, r3
    8958:	eb0003ba 	bl	9848 <_Z6concatPcPKc>
/Users/winterji/Desktop/FAV/Navazujici/OS/semestralka-kiv-os/sources/userspace/slave_task/main.cpp:185
        break;
    895c:	ea000004 	b	8974 <_Z11handle_datacf+0xd8>
/Users/winterji/Desktop/FAV/Navazujici/OS/semestralka-kiv-os/sources/userspace/slave_task/main.cpp:188
    case 't':
        // dalsi hodnota muze byt nebezpecna
        concat(log_msg, " - WARNING");
    8960:	e24b3024 	sub	r3, fp, #36	; 0x24
    8964:	e59f103c 	ldr	r1, [pc, #60]	; 89a8 <_Z11handle_datacf+0x10c>
    8968:	e1a00003 	mov	r0, r3
    896c:	eb0003b5 	bl	9848 <_Z6concatPcPKc>
/Users/winterji/Desktop/FAV/Navazujici/OS/semestralka-kiv-os/sources/userspace/slave_task/main.cpp:189
        break;
    8970:	e320f000 	nop	{0}
/Users/winterji/Desktop/FAV/Navazujici/OS/semestralka-kiv-os/sources/userspace/slave_task/main.cpp:192
    
    }
    concat(log_msg, "\n");
    8974:	e24b3024 	sub	r3, fp, #36	; 0x24
    8978:	e59f102c 	ldr	r1, [pc, #44]	; 89ac <_Z11handle_datacf+0x110>
    897c:	e1a00003 	mov	r0, r3
    8980:	eb0003b0 	bl	9848 <_Z6concatPcPKc>
/Users/winterji/Desktop/FAV/Navazujici/OS/semestralka-kiv-os/sources/userspace/slave_task/main.cpp:193
    log(log_msg);
    8984:	e24b3024 	sub	r3, fp, #36	; 0x24
    8988:	e1a00003 	mov	r0, r3
    898c:	ebfffe51 	bl	82d8 <_Z3logPKc>
/Users/winterji/Desktop/FAV/Navazujici/OS/semestralka-kiv-os/sources/userspace/slave_task/main.cpp:194
}
    8990:	e320f000 	nop	{0}
    8994:	e24bd004 	sub	sp, fp, #4
    8998:	e8bd8800 	pop	{fp, pc}
    899c:	00009be0 	andeq	r9, r0, r0, ror #23
    89a0:	00009bec 	andeq	r9, r0, ip, ror #23
    89a4:	00009bf4 	strdeq	r9, [r0], -r4
    89a8:	00009c00 	andeq	r9, r0, r0, lsl #24
    89ac:	00009b94 	muleq	r0, r4, fp

000089b0 <_Z12receive_datav>:
_Z12receive_datav():
/Users/winterji/Desktop/FAV/Navazujici/OS/semestralka-kiv-os/sources/userspace/slave_task/main.cpp:197

void receive_data()
{
    89b0:	e92d4800 	push	{fp, lr}
    89b4:	e28db004 	add	fp, sp, #4
    89b8:	e24dd030 	sub	sp, sp, #48	; 0x30
/Users/winterji/Desktop/FAV/Navazujici/OS/semestralka-kiv-os/sources/userspace/slave_task/main.cpp:199
    char buff[6], log_msg[32];
    bzero(buff, 6);
    89bc:	e24b300c 	sub	r3, fp, #12
    89c0:	e3a01006 	mov	r1, #6
    89c4:	e1a00003 	mov	r0, r3
    89c8:	eb000364 	bl	9760 <_Z5bzeroPvi>
/Users/winterji/Desktop/FAV/Navazujici/OS/semestralka-kiv-os/sources/userspace/slave_task/main.cpp:200
    bzero(log_msg, 32);
    89cc:	e24b302c 	sub	r3, fp, #44	; 0x2c
    89d0:	e3a01020 	mov	r1, #32
    89d4:	e1a00003 	mov	r0, r3
    89d8:	eb000360 	bl	9760 <_Z5bzeroPvi>
/Users/winterji/Desktop/FAV/Navazujici/OS/semestralka-kiv-os/sources/userspace/slave_task/main.cpp:204
    char value_state;
    float value;

    while (strlen(buff) == 0) {
    89dc:	e24b300c 	sub	r3, fp, #12
    89e0:	e1a00003 	mov	r0, r3
    89e4:	eb000348 	bl	970c <_Z6strlenPKc>
    89e8:	e1a03000 	mov	r3, r0
    89ec:	e3530000 	cmp	r3, #0
    89f0:	03a03001 	moveq	r3, #1
    89f4:	13a03000 	movne	r3, #0
    89f8:	e6ef3073 	uxtb	r3, r3
    89fc:	e3530000 	cmp	r3, #0
    8a00:	0a000009 	beq	8a2c <_Z12receive_datav+0x7c>
/Users/winterji/Desktop/FAV/Navazujici/OS/semestralka-kiv-os/sources/userspace/slave_task/main.cpp:205
        read(i2c_fd, buff, 6);
    8a04:	e59f3060 	ldr	r3, [pc, #96]	; 8a6c <_Z12receive_datav+0xbc>
    8a08:	e5933000 	ldr	r3, [r3]
    8a0c:	e24b100c 	sub	r1, fp, #12
    8a10:	e3a02006 	mov	r2, #6
    8a14:	e1a00003 	mov	r0, r3
    8a18:	eb0000ce 	bl	8d58 <_Z4readjPcj>
/Users/winterji/Desktop/FAV/Navazujici/OS/semestralka-kiv-os/sources/userspace/slave_task/main.cpp:206
        sleep(0x100);
    8a1c:	e3e01001 	mvn	r1, #1
    8a20:	e3a00c01 	mov	r0, #256	; 0x100
    8a24:	eb000137 	bl	8f08 <_Z5sleepjj>
/Users/winterji/Desktop/FAV/Navazujici/OS/semestralka-kiv-os/sources/userspace/slave_task/main.cpp:204
    while (strlen(buff) == 0) {
    8a28:	eaffffeb 	b	89dc <_Z12receive_datav+0x2c>
/Users/winterji/Desktop/FAV/Navazujici/OS/semestralka-kiv-os/sources/userspace/slave_task/main.cpp:209
    }

    value_state = buff[0];
    8a2c:	e55b300c 	ldrb	r3, [fp, #-12]
    8a30:	e54b3005 	strb	r3, [fp, #-5]
/Users/winterji/Desktop/FAV/Navazujici/OS/semestralka-kiv-os/sources/userspace/slave_task/main.cpp:210
    memcpy(buff + 1, &value, 4);
    8a34:	e24b300c 	sub	r3, fp, #12
    8a38:	e2833001 	add	r3, r3, #1
    8a3c:	e24b1030 	sub	r1, fp, #48	; 0x30
    8a40:	e3a02004 	mov	r2, #4
    8a44:	e1a00003 	mov	r0, r3
    8a48:	eb00035e 	bl	97c8 <_Z6memcpyPKvPvi>
/Users/winterji/Desktop/FAV/Navazujici/OS/semestralka-kiv-os/sources/userspace/slave_task/main.cpp:212

    handle_data(value_state, value);
    8a4c:	ed5b7a0c 	vldr	s15, [fp, #-48]	; 0xffffffd0
    8a50:	e55b3005 	ldrb	r3, [fp, #-5]
    8a54:	eeb00a67 	vmov.f32	s0, s15
    8a58:	e1a00003 	mov	r0, r3
    8a5c:	ebffff8e 	bl	889c <_Z11handle_datacf>
/Users/winterji/Desktop/FAV/Navazujici/OS/semestralka-kiv-os/sources/userspace/slave_task/main.cpp:213
}
    8a60:	e320f000 	nop	{0}
    8a64:	e24bd004 	sub	sp, fp, #4
    8a68:	e8bd8800 	pop	{fp, pc}
    8a6c:	00009cf8 	strdeq	r9, [r0], -r8

00008a70 <_Z11master_taskv>:
_Z11master_taskv():
/Users/winterji/Desktop/FAV/Navazujici/OS/semestralka-kiv-os/sources/userspace/slave_task/main.cpp:215

void master_task() {
    8a70:	e92d4800 	push	{fp, lr}
    8a74:	e28db004 	add	fp, sp, #4
    8a78:	e24dd030 	sub	sp, sp, #48	; 0x30
/Users/winterji/Desktop/FAV/Navazujici/OS/semestralka-kiv-os/sources/userspace/slave_task/main.cpp:219 (discriminator 1)
    char buff[9], msg[32];

    for (;;) {
        bzero(msg, 32);
    8a7c:	e24b3030 	sub	r3, fp, #48	; 0x30
    8a80:	e3a01020 	mov	r1, #32
    8a84:	e1a00003 	mov	r0, r3
    8a88:	eb000334 	bl	9760 <_Z5bzeroPvi>
/Users/winterji/Desktop/FAV/Navazujici/OS/semestralka-kiv-os/sources/userspace/slave_task/main.cpp:220 (discriminator 1)
        bzero(buff, 9);
    8a8c:	e24b3010 	sub	r3, fp, #16
    8a90:	e3a01009 	mov	r1, #9
    8a94:	e1a00003 	mov	r0, r3
    8a98:	eb000330 	bl	9760 <_Z5bzeroPvi>
/Users/winterji/Desktop/FAV/Navazujici/OS/semestralka-kiv-os/sources/userspace/slave_task/main.cpp:221 (discriminator 1)
        receive_data();
    8a9c:	ebffffc3 	bl	89b0 <_Z12receive_datav>
/Users/winterji/Desktop/FAV/Navazujici/OS/semestralka-kiv-os/sources/userspace/slave_task/main.cpp:223 (discriminator 1)

        sleep(0x15000);
    8aa0:	e3e01001 	mvn	r1, #1
    8aa4:	e3a00a15 	mov	r0, #86016	; 0x15000
    8aa8:	eb000116 	bl	8f08 <_Z5sleepjj>
/Users/winterji/Desktop/FAV/Navazujici/OS/semestralka-kiv-os/sources/userspace/slave_task/main.cpp:219 (discriminator 1)
        bzero(msg, 32);
    8aac:	eafffff2 	b	8a7c <_Z11master_taskv+0xc>

00008ab0 <_Z10slave_taskv>:
_Z10slave_taskv():
/Users/winterji/Desktop/FAV/Navazujici/OS/semestralka-kiv-os/sources/userspace/slave_task/main.cpp:227
    }
}

void slave_task() {
    8ab0:	e92d4800 	push	{fp, lr}
    8ab4:	e28db004 	add	fp, sp, #4
    8ab8:	e24dd008 	sub	sp, sp, #8
/Users/winterji/Desktop/FAV/Navazujici/OS/semestralka-kiv-os/sources/userspace/slave_task/main.cpp:228
    uint32_t counter = 0;
    8abc:	e3a03000 	mov	r3, #0
    8ac0:	e50b3008 	str	r3, [fp, #-8]
/Users/winterji/Desktop/FAV/Navazujici/OS/semestralka-kiv-os/sources/userspace/slave_task/main.cpp:230 (discriminator 1)
    for (;;) {
        send_value(random_values[counter]);
    8ac4:	e59f2050 	ldr	r2, [pc, #80]	; 8b1c <_Z10slave_taskv+0x6c>
    8ac8:	e51b3008 	ldr	r3, [fp, #-8]
    8acc:	e1a03103 	lsl	r3, r3, #2
    8ad0:	e0823003 	add	r3, r2, r3
    8ad4:	edd37a00 	vldr	s15, [r3]
    8ad8:	eeb00a67 	vmov.f32	s0, s15
    8adc:	ebfffe93 	bl	8530 <_Z10send_valuef>
/Users/winterji/Desktop/FAV/Navazujici/OS/semestralka-kiv-os/sources/userspace/slave_task/main.cpp:231 (discriminator 1)
        prev_value = random_values[counter];
    8ae0:	e59f2034 	ldr	r2, [pc, #52]	; 8b1c <_Z10slave_taskv+0x6c>
    8ae4:	e51b3008 	ldr	r3, [fp, #-8]
    8ae8:	e1a03103 	lsl	r3, r3, #2
    8aec:	e0823003 	add	r3, r2, r3
    8af0:	e5933000 	ldr	r3, [r3]
    8af4:	e59f2024 	ldr	r2, [pc, #36]	; 8b20 <_Z10slave_taskv+0x70>
    8af8:	e5823000 	str	r3, [r2]
/Users/winterji/Desktop/FAV/Navazujici/OS/semestralka-kiv-os/sources/userspace/slave_task/main.cpp:232 (discriminator 1)
        counter = (counter + 1) % random_values_len;
    8afc:	e51b3008 	ldr	r3, [fp, #-8]
    8b00:	e2833001 	add	r3, r3, #1
    8b04:	e2033007 	and	r3, r3, #7
    8b08:	e50b3008 	str	r3, [fp, #-8]
/Users/winterji/Desktop/FAV/Navazujici/OS/semestralka-kiv-os/sources/userspace/slave_task/main.cpp:233 (discriminator 1)
        sleep(0x15000);
    8b0c:	e3e01001 	mvn	r1, #1
    8b10:	e3a00a15 	mov	r0, #86016	; 0x15000
    8b14:	eb0000fb 	bl	8f08 <_Z5sleepjj>
/Users/winterji/Desktop/FAV/Navazujici/OS/semestralka-kiv-os/sources/userspace/slave_task/main.cpp:230 (discriminator 1)
        send_value(random_values[counter]);
    8b18:	eaffffe9 	b	8ac4 <_Z10slave_taskv+0x14>
    8b1c:	00009b48 	andeq	r9, r0, r8, asr #22
    8b20:	00009cec 	andeq	r9, r0, ip, ror #25

00008b24 <main>:
main():
/Users/winterji/Desktop/FAV/Navazujici/OS/semestralka-kiv-os/sources/userspace/slave_task/main.cpp:238
    }
}

int main(int argc, char** argv)
{
    8b24:	e92d4800 	push	{fp, lr}
    8b28:	e28db004 	add	fp, sp, #4
    8b2c:	e24dd030 	sub	sp, sp, #48	; 0x30
    8b30:	e50b0030 	str	r0, [fp, #-48]	; 0xffffffd0
    8b34:	e50b1034 	str	r1, [fp, #-52]	; 0xffffffcc
/Users/winterji/Desktop/FAV/Navazujici/OS/semestralka-kiv-os/sources/userspace/slave_task/main.cpp:239
    uint32_t counter = 0;
    8b38:	e3a03000 	mov	r3, #0
    8b3c:	e50b3008 	str	r3, [fp, #-8]
/Users/winterji/Desktop/FAV/Navazujici/OS/semestralka-kiv-os/sources/userspace/slave_task/main.cpp:241
    char buff[32];
    bzero(buff, 32);
    8b40:	e24b3028 	sub	r3, fp, #40	; 0x28
    8b44:	e3a01020 	mov	r1, #32
    8b48:	e1a00003 	mov	r0, r3
    8b4c:	eb000303 	bl	9760 <_Z5bzeroPvi>
/Users/winterji/Desktop/FAV/Navazujici/OS/semestralka-kiv-os/sources/userspace/slave_task/main.cpp:243

    log_fd = pipe("log", 128);
    8b50:	e3a01080 	mov	r1, #128	; 0x80
    8b54:	e59f011c 	ldr	r0, [pc, #284]	; 8c78 <main+0x154>
    8b58:	eb00013b 	bl	904c <_Z4pipePKcj>
    8b5c:	e1a03000 	mov	r3, r0
    8b60:	e59f2114 	ldr	r2, [pc, #276]	; 8c7c <main+0x158>
    8b64:	e5823000 	str	r3, [r2]
/Users/winterji/Desktop/FAV/Navazujici/OS/semestralka-kiv-os/sources/userspace/slave_task/main.cpp:245

    log("Task 1 started\n");
    8b68:	e59f0110 	ldr	r0, [pc, #272]	; 8c80 <main+0x15c>
    8b6c:	ebfffdd9 	bl	82d8 <_Z3logPKc>
/Users/winterji/Desktop/FAV/Navazujici/OS/semestralka-kiv-os/sources/userspace/slave_task/main.cpp:248

    // start i2c connection - primarly master
    i2c_fd = open("DEV:i2c/1", NFile_Open_Mode::Read_Write);
    8b70:	e3a01002 	mov	r1, #2
    8b74:	e59f0108 	ldr	r0, [pc, #264]	; 8c84 <main+0x160>
    8b78:	eb000065 	bl	8d14 <_Z4openPKc15NFile_Open_Mode>
    8b7c:	e1a03000 	mov	r3, r0
    8b80:	e59f2100 	ldr	r2, [pc, #256]	; 8c88 <main+0x164>
    8b84:	e5823000 	str	r3, [r2]
/Users/winterji/Desktop/FAV/Navazujici/OS/semestralka-kiv-os/sources/userspace/slave_task/main.cpp:249
    if (i2c_fd == Invalid_Handle) {
    8b88:	e59f30f8 	ldr	r3, [pc, #248]	; 8c88 <main+0x164>
    8b8c:	e5933000 	ldr	r3, [r3]
    8b90:	e3730001 	cmn	r3, #1
    8b94:	1a00000d 	bne	8bd0 <main+0xac>
/Users/winterji/Desktop/FAV/Navazujici/OS/semestralka-kiv-os/sources/userspace/slave_task/main.cpp:251
        // if master already opened, open slave
        i2c_fd = open("DEV:i2c/2", NFile_Open_Mode::Read_Write);
    8b98:	e3a01002 	mov	r1, #2
    8b9c:	e59f00e8 	ldr	r0, [pc, #232]	; 8c8c <main+0x168>
    8ba0:	eb00005b 	bl	8d14 <_Z4openPKc15NFile_Open_Mode>
    8ba4:	e1a03000 	mov	r3, r0
    8ba8:	e59f20d8 	ldr	r2, [pc, #216]	; 8c88 <main+0x164>
    8bac:	e5823000 	str	r3, [r2]
/Users/winterji/Desktop/FAV/Navazujici/OS/semestralka-kiv-os/sources/userspace/slave_task/main.cpp:252
        if (i2c_fd == Invalid_Handle) {
    8bb0:	e59f30d0 	ldr	r3, [pc, #208]	; 8c88 <main+0x164>
    8bb4:	e5933000 	ldr	r3, [r3]
    8bb8:	e3730001 	cmn	r3, #1
    8bbc:	1a000003 	bne	8bd0 <main+0xac>
/Users/winterji/Desktop/FAV/Navazujici/OS/semestralka-kiv-os/sources/userspace/slave_task/main.cpp:253
            log("Error opening I2C connection\n");
    8bc0:	e59f00c8 	ldr	r0, [pc, #200]	; 8c90 <main+0x16c>
    8bc4:	ebfffdc3 	bl	82d8 <_Z3logPKc>
/Users/winterji/Desktop/FAV/Navazujici/OS/semestralka-kiv-os/sources/userspace/slave_task/main.cpp:254
            return 1;
    8bc8:	e3a03001 	mov	r3, #1
    8bcc:	ea000026 	b	8c6c <main+0x148>
/Users/winterji/Desktop/FAV/Navazujici/OS/semestralka-kiv-os/sources/userspace/slave_task/main.cpp:259
        }
    }
    // set addresses
    TI2C_IOCtl_Params params;
    params.address = ADDRESS;
    8bd0:	e3a03002 	mov	r3, #2
    8bd4:	e54b302c 	strb	r3, [fp, #-44]	; 0xffffffd4
/Users/winterji/Desktop/FAV/Navazujici/OS/semestralka-kiv-os/sources/userspace/slave_task/main.cpp:260
    params.targetAdress = TARGET_ADDRESS;
    8bd8:	e3a03001 	mov	r3, #1
    8bdc:	e54b302b 	strb	r3, [fp, #-43]	; 0xffffffd5
/Users/winterji/Desktop/FAV/Navazujici/OS/semestralka-kiv-os/sources/userspace/slave_task/main.cpp:261
    ioctl(i2c_fd, NIOCtl_Operation::Set_Params, &params);
    8be0:	e59f30a0 	ldr	r3, [pc, #160]	; 8c88 <main+0x164>
    8be4:	e5933000 	ldr	r3, [r3]
    8be8:	e24b202c 	sub	r2, fp, #44	; 0x2c
    8bec:	e3a01001 	mov	r1, #1
    8bf0:	e1a00003 	mov	r0, r3
    8bf4:	eb00008a 	bl	8e24 <_Z5ioctlj16NIOCtl_OperationPv>
/Users/winterji/Desktop/FAV/Navazujici/OS/semestralka-kiv-os/sources/userspace/slave_task/main.cpp:262
    log("Task 1: I2C connection started...\n");
    8bf8:	e59f0094 	ldr	r0, [pc, #148]	; 8c94 <main+0x170>
    8bfc:	ebfffdb5 	bl	82d8 <_Z3logPKc>
/Users/winterji/Desktop/FAV/Navazujici/OS/semestralka-kiv-os/sources/userspace/slave_task/main.cpp:270
    // if (slave == Invalid_Handle) {
    //     log("Error opening I2C slave connection\n");
    //     return 1;
    // }

    sleep(0x100);
    8c00:	e3e01001 	mvn	r1, #1
    8c04:	e3a00c01 	mov	r0, #256	; 0x100
    8c08:	eb0000be 	bl	8f08 <_Z5sleepjj>
/Users/winterji/Desktop/FAV/Navazujici/OS/semestralka-kiv-os/sources/userspace/slave_task/main.cpp:271
    set_roles(DESIRED_ROLE);
    8c0c:	e3a00001 	mov	r0, #1
    8c10:	ebfffead 	bl	86cc <_Z9set_roles9CI2C_Mode>
/Users/winterji/Desktop/FAV/Navazujici/OS/semestralka-kiv-os/sources/userspace/slave_task/main.cpp:273

    switch (agreed_role)
    8c14:	e59f307c 	ldr	r3, [pc, #124]	; 8c98 <main+0x174>
    8c18:	e5933000 	ldr	r3, [r3]
    8c1c:	e3530000 	cmp	r3, #0
    8c20:	0a000002 	beq	8c30 <main+0x10c>
    8c24:	e3530001 	cmp	r3, #1
    8c28:	0a000002 	beq	8c38 <main+0x114>
    8c2c:	ea000003 	b	8c40 <main+0x11c>
/Users/winterji/Desktop/FAV/Navazujici/OS/semestralka-kiv-os/sources/userspace/slave_task/main.cpp:276
    {
    case CI2C_Mode::Master:
        master_task();
    8c30:	ebffff8e 	bl	8a70 <_Z11master_taskv>
/Users/winterji/Desktop/FAV/Navazujici/OS/semestralka-kiv-os/sources/userspace/slave_task/main.cpp:277
        break;
    8c34:	ea000001 	b	8c40 <main+0x11c>
/Users/winterji/Desktop/FAV/Navazujici/OS/semestralka-kiv-os/sources/userspace/slave_task/main.cpp:279
    case CI2C_Mode::Slave:
        slave_task();
    8c38:	ebffff9c 	bl	8ab0 <_Z10slave_taskv>
/Users/winterji/Desktop/FAV/Navazujici/OS/semestralka-kiv-os/sources/userspace/slave_task/main.cpp:280
        break;
    8c3c:	e320f000 	nop	{0}
/Users/winterji/Desktop/FAV/Navazujici/OS/semestralka-kiv-os/sources/userspace/slave_task/main.cpp:283
    }

    close(i2c_fd);
    8c40:	e59f3040 	ldr	r3, [pc, #64]	; 8c88 <main+0x164>
    8c44:	e5933000 	ldr	r3, [r3]
    8c48:	e1a00003 	mov	r0, r3
    8c4c:	eb000069 	bl	8df8 <_Z5closej>
/Users/winterji/Desktop/FAV/Navazujici/OS/semestralka-kiv-os/sources/userspace/slave_task/main.cpp:284
    log("Open files closed in task 1\n");
    8c50:	e59f0044 	ldr	r0, [pc, #68]	; 8c9c <main+0x178>
    8c54:	ebfffd9f 	bl	82d8 <_Z3logPKc>
/Users/winterji/Desktop/FAV/Navazujici/OS/semestralka-kiv-os/sources/userspace/slave_task/main.cpp:285
    close(log_fd);
    8c58:	e59f301c 	ldr	r3, [pc, #28]	; 8c7c <main+0x158>
    8c5c:	e5933000 	ldr	r3, [r3]
    8c60:	e1a00003 	mov	r0, r3
    8c64:	eb000063 	bl	8df8 <_Z5closej>
/Users/winterji/Desktop/FAV/Navazujici/OS/semestralka-kiv-os/sources/userspace/slave_task/main.cpp:287

    return 0;
    8c68:	e3a03000 	mov	r3, #0
/Users/winterji/Desktop/FAV/Navazujici/OS/semestralka-kiv-os/sources/userspace/slave_task/main.cpp:288 (discriminator 1)
}
    8c6c:	e1a00003 	mov	r0, r3
    8c70:	e24bd004 	sub	sp, fp, #4
    8c74:	e8bd8800 	pop	{fp, pc}
    8c78:	00009c0c 	andeq	r9, r0, ip, lsl #24
    8c7c:	00009cf0 	strdeq	r9, [r0], -r0
    8c80:	00009c10 	andeq	r9, r0, r0, lsl ip
    8c84:	00009c20 	andeq	r9, r0, r0, lsr #24
    8c88:	00009cf8 	strdeq	r9, [r0], -r8
    8c8c:	00009c2c 	andeq	r9, r0, ip, lsr #24
    8c90:	00009c38 	andeq	r9, r0, r8, lsr ip
    8c94:	00009c58 	andeq	r9, r0, r8, asr ip
    8c98:	00009ce8 	andeq	r9, r0, r8, ror #25
    8c9c:	00009c7c 	andeq	r9, r0, ip, ror ip

00008ca0 <_Z6getpidv>:
_Z6getpidv():
/Users/winterji/Desktop/FAV/Navazujici/OS/semestralka-kiv-os/sources/stdlib/src/stdfile.cpp:5
#include <stdfile.h>
#include <stdstring.h>

uint32_t getpid()
{
    8ca0:	e52db004 	push	{fp}		; (str fp, [sp, #-4]!)
    8ca4:	e28db000 	add	fp, sp, #0
    8ca8:	e24dd00c 	sub	sp, sp, #12
/Users/winterji/Desktop/FAV/Navazujici/OS/semestralka-kiv-os/sources/stdlib/src/stdfile.cpp:8
    uint32_t pid;

    asm volatile("swi 0");
    8cac:	ef000000 	svc	0x00000000
/Users/winterji/Desktop/FAV/Navazujici/OS/semestralka-kiv-os/sources/stdlib/src/stdfile.cpp:9
    asm volatile("mov %0, r0" : "=r" (pid));
    8cb0:	e1a03000 	mov	r3, r0
    8cb4:	e50b3008 	str	r3, [fp, #-8]
/Users/winterji/Desktop/FAV/Navazujici/OS/semestralka-kiv-os/sources/stdlib/src/stdfile.cpp:11

    return pid;
    8cb8:	e51b3008 	ldr	r3, [fp, #-8]
/Users/winterji/Desktop/FAV/Navazujici/OS/semestralka-kiv-os/sources/stdlib/src/stdfile.cpp:12
}
    8cbc:	e1a00003 	mov	r0, r3
    8cc0:	e28bd000 	add	sp, fp, #0
    8cc4:	e49db004 	pop	{fp}		; (ldr fp, [sp], #4)
    8cc8:	e12fff1e 	bx	lr

00008ccc <_Z9terminatei>:
_Z9terminatei():
/Users/winterji/Desktop/FAV/Navazujici/OS/semestralka-kiv-os/sources/stdlib/src/stdfile.cpp:15

void terminate(int exitcode)
{
    8ccc:	e52db004 	push	{fp}		; (str fp, [sp, #-4]!)
    8cd0:	e28db000 	add	fp, sp, #0
    8cd4:	e24dd00c 	sub	sp, sp, #12
    8cd8:	e50b0008 	str	r0, [fp, #-8]
/Users/winterji/Desktop/FAV/Navazujici/OS/semestralka-kiv-os/sources/stdlib/src/stdfile.cpp:16
    asm volatile("mov r0, %0" : : "r" (exitcode));
    8cdc:	e51b3008 	ldr	r3, [fp, #-8]
    8ce0:	e1a00003 	mov	r0, r3
/Users/winterji/Desktop/FAV/Navazujici/OS/semestralka-kiv-os/sources/stdlib/src/stdfile.cpp:17
    asm volatile("swi 1");
    8ce4:	ef000001 	svc	0x00000001
/Users/winterji/Desktop/FAV/Navazujici/OS/semestralka-kiv-os/sources/stdlib/src/stdfile.cpp:18
}
    8ce8:	e320f000 	nop	{0}
    8cec:	e28bd000 	add	sp, fp, #0
    8cf0:	e49db004 	pop	{fp}		; (ldr fp, [sp], #4)
    8cf4:	e12fff1e 	bx	lr

00008cf8 <_Z11sched_yieldv>:
_Z11sched_yieldv():
/Users/winterji/Desktop/FAV/Navazujici/OS/semestralka-kiv-os/sources/stdlib/src/stdfile.cpp:21

void sched_yield()
{
    8cf8:	e52db004 	push	{fp}		; (str fp, [sp, #-4]!)
    8cfc:	e28db000 	add	fp, sp, #0
/Users/winterji/Desktop/FAV/Navazujici/OS/semestralka-kiv-os/sources/stdlib/src/stdfile.cpp:22
    asm volatile("swi 2");
    8d00:	ef000002 	svc	0x00000002
/Users/winterji/Desktop/FAV/Navazujici/OS/semestralka-kiv-os/sources/stdlib/src/stdfile.cpp:23
}
    8d04:	e320f000 	nop	{0}
    8d08:	e28bd000 	add	sp, fp, #0
    8d0c:	e49db004 	pop	{fp}		; (ldr fp, [sp], #4)
    8d10:	e12fff1e 	bx	lr

00008d14 <_Z4openPKc15NFile_Open_Mode>:
_Z4openPKc15NFile_Open_Mode():
/Users/winterji/Desktop/FAV/Navazujici/OS/semestralka-kiv-os/sources/stdlib/src/stdfile.cpp:26

uint32_t open(const char* filename, NFile_Open_Mode mode)
{
    8d14:	e52db004 	push	{fp}		; (str fp, [sp, #-4]!)
    8d18:	e28db000 	add	fp, sp, #0
    8d1c:	e24dd014 	sub	sp, sp, #20
    8d20:	e50b0010 	str	r0, [fp, #-16]
    8d24:	e50b1014 	str	r1, [fp, #-20]	; 0xffffffec
/Users/winterji/Desktop/FAV/Navazujici/OS/semestralka-kiv-os/sources/stdlib/src/stdfile.cpp:29
    uint32_t file;

    asm volatile("mov r0, %0" : : "r" (filename));
    8d28:	e51b3010 	ldr	r3, [fp, #-16]
    8d2c:	e1a00003 	mov	r0, r3
/Users/winterji/Desktop/FAV/Navazujici/OS/semestralka-kiv-os/sources/stdlib/src/stdfile.cpp:30
    asm volatile("mov r1, %0" : : "r" (mode));
    8d30:	e51b3014 	ldr	r3, [fp, #-20]	; 0xffffffec
    8d34:	e1a01003 	mov	r1, r3
/Users/winterji/Desktop/FAV/Navazujici/OS/semestralka-kiv-os/sources/stdlib/src/stdfile.cpp:31
    asm volatile("swi 64");
    8d38:	ef000040 	svc	0x00000040
/Users/winterji/Desktop/FAV/Navazujici/OS/semestralka-kiv-os/sources/stdlib/src/stdfile.cpp:32
    asm volatile("mov %0, r0" : "=r" (file));
    8d3c:	e1a03000 	mov	r3, r0
    8d40:	e50b3008 	str	r3, [fp, #-8]
/Users/winterji/Desktop/FAV/Navazujici/OS/semestralka-kiv-os/sources/stdlib/src/stdfile.cpp:33
    return file;
    8d44:	e51b3008 	ldr	r3, [fp, #-8]
/Users/winterji/Desktop/FAV/Navazujici/OS/semestralka-kiv-os/sources/stdlib/src/stdfile.cpp:34
}
    8d48:	e1a00003 	mov	r0, r3
    8d4c:	e28bd000 	add	sp, fp, #0
    8d50:	e49db004 	pop	{fp}		; (ldr fp, [sp], #4)
    8d54:	e12fff1e 	bx	lr

00008d58 <_Z4readjPcj>:
_Z4readjPcj():
/Users/winterji/Desktop/FAV/Navazujici/OS/semestralka-kiv-os/sources/stdlib/src/stdfile.cpp:37

uint32_t read(uint32_t file, char* const buffer, uint32_t size)
{
    8d58:	e52db004 	push	{fp}		; (str fp, [sp, #-4]!)
    8d5c:	e28db000 	add	fp, sp, #0
    8d60:	e24dd01c 	sub	sp, sp, #28
    8d64:	e50b0010 	str	r0, [fp, #-16]
    8d68:	e50b1014 	str	r1, [fp, #-20]	; 0xffffffec
    8d6c:	e50b2018 	str	r2, [fp, #-24]	; 0xffffffe8
/Users/winterji/Desktop/FAV/Navazujici/OS/semestralka-kiv-os/sources/stdlib/src/stdfile.cpp:40
    uint32_t rdnum;

    asm volatile("mov r0, %0" : : "r" (file));
    8d70:	e51b3010 	ldr	r3, [fp, #-16]
    8d74:	e1a00003 	mov	r0, r3
/Users/winterji/Desktop/FAV/Navazujici/OS/semestralka-kiv-os/sources/stdlib/src/stdfile.cpp:41
    asm volatile("mov r1, %0" : : "r" (buffer));
    8d78:	e51b3014 	ldr	r3, [fp, #-20]	; 0xffffffec
    8d7c:	e1a01003 	mov	r1, r3
/Users/winterji/Desktop/FAV/Navazujici/OS/semestralka-kiv-os/sources/stdlib/src/stdfile.cpp:42
    asm volatile("mov r2, %0" : : "r" (size));
    8d80:	e51b3018 	ldr	r3, [fp, #-24]	; 0xffffffe8
    8d84:	e1a02003 	mov	r2, r3
/Users/winterji/Desktop/FAV/Navazujici/OS/semestralka-kiv-os/sources/stdlib/src/stdfile.cpp:43
    asm volatile("swi 65");
    8d88:	ef000041 	svc	0x00000041
/Users/winterji/Desktop/FAV/Navazujici/OS/semestralka-kiv-os/sources/stdlib/src/stdfile.cpp:44
    asm volatile("mov %0, r0" : "=r" (rdnum));
    8d8c:	e1a03000 	mov	r3, r0
    8d90:	e50b3008 	str	r3, [fp, #-8]
/Users/winterji/Desktop/FAV/Navazujici/OS/semestralka-kiv-os/sources/stdlib/src/stdfile.cpp:46

    return rdnum;
    8d94:	e51b3008 	ldr	r3, [fp, #-8]
/Users/winterji/Desktop/FAV/Navazujici/OS/semestralka-kiv-os/sources/stdlib/src/stdfile.cpp:47
}
    8d98:	e1a00003 	mov	r0, r3
    8d9c:	e28bd000 	add	sp, fp, #0
    8da0:	e49db004 	pop	{fp}		; (ldr fp, [sp], #4)
    8da4:	e12fff1e 	bx	lr

00008da8 <_Z5writejPKcj>:
_Z5writejPKcj():
/Users/winterji/Desktop/FAV/Navazujici/OS/semestralka-kiv-os/sources/stdlib/src/stdfile.cpp:50

uint32_t write(uint32_t file, const char* buffer, uint32_t size)
{
    8da8:	e52db004 	push	{fp}		; (str fp, [sp, #-4]!)
    8dac:	e28db000 	add	fp, sp, #0
    8db0:	e24dd01c 	sub	sp, sp, #28
    8db4:	e50b0010 	str	r0, [fp, #-16]
    8db8:	e50b1014 	str	r1, [fp, #-20]	; 0xffffffec
    8dbc:	e50b2018 	str	r2, [fp, #-24]	; 0xffffffe8
/Users/winterji/Desktop/FAV/Navazujici/OS/semestralka-kiv-os/sources/stdlib/src/stdfile.cpp:53
    uint32_t wrnum;

    asm volatile("mov r0, %0" : : "r" (file));
    8dc0:	e51b3010 	ldr	r3, [fp, #-16]
    8dc4:	e1a00003 	mov	r0, r3
/Users/winterji/Desktop/FAV/Navazujici/OS/semestralka-kiv-os/sources/stdlib/src/stdfile.cpp:54
    asm volatile("mov r1, %0" : : "r" (buffer));
    8dc8:	e51b3014 	ldr	r3, [fp, #-20]	; 0xffffffec
    8dcc:	e1a01003 	mov	r1, r3
/Users/winterji/Desktop/FAV/Navazujici/OS/semestralka-kiv-os/sources/stdlib/src/stdfile.cpp:55
    asm volatile("mov r2, %0" : : "r" (size));
    8dd0:	e51b3018 	ldr	r3, [fp, #-24]	; 0xffffffe8
    8dd4:	e1a02003 	mov	r2, r3
/Users/winterji/Desktop/FAV/Navazujici/OS/semestralka-kiv-os/sources/stdlib/src/stdfile.cpp:56
    asm volatile("swi 66");
    8dd8:	ef000042 	svc	0x00000042
/Users/winterji/Desktop/FAV/Navazujici/OS/semestralka-kiv-os/sources/stdlib/src/stdfile.cpp:57
    asm volatile("mov %0, r0" : "=r" (wrnum));
    8ddc:	e1a03000 	mov	r3, r0
    8de0:	e50b3008 	str	r3, [fp, #-8]
/Users/winterji/Desktop/FAV/Navazujici/OS/semestralka-kiv-os/sources/stdlib/src/stdfile.cpp:59

    return wrnum;
    8de4:	e51b3008 	ldr	r3, [fp, #-8]
/Users/winterji/Desktop/FAV/Navazujici/OS/semestralka-kiv-os/sources/stdlib/src/stdfile.cpp:60
}
    8de8:	e1a00003 	mov	r0, r3
    8dec:	e28bd000 	add	sp, fp, #0
    8df0:	e49db004 	pop	{fp}		; (ldr fp, [sp], #4)
    8df4:	e12fff1e 	bx	lr

00008df8 <_Z5closej>:
_Z5closej():
/Users/winterji/Desktop/FAV/Navazujici/OS/semestralka-kiv-os/sources/stdlib/src/stdfile.cpp:63

void close(uint32_t file)
{
    8df8:	e52db004 	push	{fp}		; (str fp, [sp, #-4]!)
    8dfc:	e28db000 	add	fp, sp, #0
    8e00:	e24dd00c 	sub	sp, sp, #12
    8e04:	e50b0008 	str	r0, [fp, #-8]
/Users/winterji/Desktop/FAV/Navazujici/OS/semestralka-kiv-os/sources/stdlib/src/stdfile.cpp:64
    asm volatile("mov r0, %0" : : "r" (file));
    8e08:	e51b3008 	ldr	r3, [fp, #-8]
    8e0c:	e1a00003 	mov	r0, r3
/Users/winterji/Desktop/FAV/Navazujici/OS/semestralka-kiv-os/sources/stdlib/src/stdfile.cpp:65
    asm volatile("swi 67");
    8e10:	ef000043 	svc	0x00000043
/Users/winterji/Desktop/FAV/Navazujici/OS/semestralka-kiv-os/sources/stdlib/src/stdfile.cpp:66
}
    8e14:	e320f000 	nop	{0}
    8e18:	e28bd000 	add	sp, fp, #0
    8e1c:	e49db004 	pop	{fp}		; (ldr fp, [sp], #4)
    8e20:	e12fff1e 	bx	lr

00008e24 <_Z5ioctlj16NIOCtl_OperationPv>:
_Z5ioctlj16NIOCtl_OperationPv():
/Users/winterji/Desktop/FAV/Navazujici/OS/semestralka-kiv-os/sources/stdlib/src/stdfile.cpp:69

uint32_t ioctl(uint32_t file, NIOCtl_Operation operation, void* param)
{
    8e24:	e52db004 	push	{fp}		; (str fp, [sp, #-4]!)
    8e28:	e28db000 	add	fp, sp, #0
    8e2c:	e24dd01c 	sub	sp, sp, #28
    8e30:	e50b0010 	str	r0, [fp, #-16]
    8e34:	e50b1014 	str	r1, [fp, #-20]	; 0xffffffec
    8e38:	e50b2018 	str	r2, [fp, #-24]	; 0xffffffe8
/Users/winterji/Desktop/FAV/Navazujici/OS/semestralka-kiv-os/sources/stdlib/src/stdfile.cpp:72
    uint32_t retcode;

    asm volatile("mov r0, %0" : : "r" (file));
    8e3c:	e51b3010 	ldr	r3, [fp, #-16]
    8e40:	e1a00003 	mov	r0, r3
/Users/winterji/Desktop/FAV/Navazujici/OS/semestralka-kiv-os/sources/stdlib/src/stdfile.cpp:73
    asm volatile("mov r1, %0" : : "r" (operation));
    8e44:	e51b3014 	ldr	r3, [fp, #-20]	; 0xffffffec
    8e48:	e1a01003 	mov	r1, r3
/Users/winterji/Desktop/FAV/Navazujici/OS/semestralka-kiv-os/sources/stdlib/src/stdfile.cpp:74
    asm volatile("mov r2, %0" : : "r" (param));
    8e4c:	e51b3018 	ldr	r3, [fp, #-24]	; 0xffffffe8
    8e50:	e1a02003 	mov	r2, r3
/Users/winterji/Desktop/FAV/Navazujici/OS/semestralka-kiv-os/sources/stdlib/src/stdfile.cpp:75
    asm volatile("swi 68");
    8e54:	ef000044 	svc	0x00000044
/Users/winterji/Desktop/FAV/Navazujici/OS/semestralka-kiv-os/sources/stdlib/src/stdfile.cpp:76
    asm volatile("mov %0, r0" : "=r" (retcode));
    8e58:	e1a03000 	mov	r3, r0
    8e5c:	e50b3008 	str	r3, [fp, #-8]
/Users/winterji/Desktop/FAV/Navazujici/OS/semestralka-kiv-os/sources/stdlib/src/stdfile.cpp:78

    return retcode;
    8e60:	e51b3008 	ldr	r3, [fp, #-8]
/Users/winterji/Desktop/FAV/Navazujici/OS/semestralka-kiv-os/sources/stdlib/src/stdfile.cpp:79
}
    8e64:	e1a00003 	mov	r0, r3
    8e68:	e28bd000 	add	sp, fp, #0
    8e6c:	e49db004 	pop	{fp}		; (ldr fp, [sp], #4)
    8e70:	e12fff1e 	bx	lr

00008e74 <_Z6notifyjj>:
_Z6notifyjj():
/Users/winterji/Desktop/FAV/Navazujici/OS/semestralka-kiv-os/sources/stdlib/src/stdfile.cpp:82

uint32_t notify(uint32_t file, uint32_t count)
{
    8e74:	e52db004 	push	{fp}		; (str fp, [sp, #-4]!)
    8e78:	e28db000 	add	fp, sp, #0
    8e7c:	e24dd014 	sub	sp, sp, #20
    8e80:	e50b0010 	str	r0, [fp, #-16]
    8e84:	e50b1014 	str	r1, [fp, #-20]	; 0xffffffec
/Users/winterji/Desktop/FAV/Navazujici/OS/semestralka-kiv-os/sources/stdlib/src/stdfile.cpp:85
    uint32_t retcnt;

    asm volatile("mov r0, %0" : : "r" (file));
    8e88:	e51b3010 	ldr	r3, [fp, #-16]
    8e8c:	e1a00003 	mov	r0, r3
/Users/winterji/Desktop/FAV/Navazujici/OS/semestralka-kiv-os/sources/stdlib/src/stdfile.cpp:86
    asm volatile("mov r1, %0" : : "r" (count));
    8e90:	e51b3014 	ldr	r3, [fp, #-20]	; 0xffffffec
    8e94:	e1a01003 	mov	r1, r3
/Users/winterji/Desktop/FAV/Navazujici/OS/semestralka-kiv-os/sources/stdlib/src/stdfile.cpp:87
    asm volatile("swi 69");
    8e98:	ef000045 	svc	0x00000045
/Users/winterji/Desktop/FAV/Navazujici/OS/semestralka-kiv-os/sources/stdlib/src/stdfile.cpp:88
    asm volatile("mov %0, r0" : "=r" (retcnt));
    8e9c:	e1a03000 	mov	r3, r0
    8ea0:	e50b3008 	str	r3, [fp, #-8]
/Users/winterji/Desktop/FAV/Navazujici/OS/semestralka-kiv-os/sources/stdlib/src/stdfile.cpp:90

    return retcnt;
    8ea4:	e51b3008 	ldr	r3, [fp, #-8]
/Users/winterji/Desktop/FAV/Navazujici/OS/semestralka-kiv-os/sources/stdlib/src/stdfile.cpp:91
}
    8ea8:	e1a00003 	mov	r0, r3
    8eac:	e28bd000 	add	sp, fp, #0
    8eb0:	e49db004 	pop	{fp}		; (ldr fp, [sp], #4)
    8eb4:	e12fff1e 	bx	lr

00008eb8 <_Z4waitjjj>:
_Z4waitjjj():
/Users/winterji/Desktop/FAV/Navazujici/OS/semestralka-kiv-os/sources/stdlib/src/stdfile.cpp:94

NSWI_Result_Code wait(uint32_t file, uint32_t count, uint32_t notified_deadline)
{
    8eb8:	e52db004 	push	{fp}		; (str fp, [sp, #-4]!)
    8ebc:	e28db000 	add	fp, sp, #0
    8ec0:	e24dd01c 	sub	sp, sp, #28
    8ec4:	e50b0010 	str	r0, [fp, #-16]
    8ec8:	e50b1014 	str	r1, [fp, #-20]	; 0xffffffec
    8ecc:	e50b2018 	str	r2, [fp, #-24]	; 0xffffffe8
/Users/winterji/Desktop/FAV/Navazujici/OS/semestralka-kiv-os/sources/stdlib/src/stdfile.cpp:97
    NSWI_Result_Code retcode;

    asm volatile("mov r0, %0" : : "r" (file));
    8ed0:	e51b3010 	ldr	r3, [fp, #-16]
    8ed4:	e1a00003 	mov	r0, r3
/Users/winterji/Desktop/FAV/Navazujici/OS/semestralka-kiv-os/sources/stdlib/src/stdfile.cpp:98
    asm volatile("mov r1, %0" : : "r" (count));
    8ed8:	e51b3014 	ldr	r3, [fp, #-20]	; 0xffffffec
    8edc:	e1a01003 	mov	r1, r3
/Users/winterji/Desktop/FAV/Navazujici/OS/semestralka-kiv-os/sources/stdlib/src/stdfile.cpp:99
    asm volatile("mov r2, %0" : : "r" (notified_deadline));
    8ee0:	e51b3018 	ldr	r3, [fp, #-24]	; 0xffffffe8
    8ee4:	e1a02003 	mov	r2, r3
/Users/winterji/Desktop/FAV/Navazujici/OS/semestralka-kiv-os/sources/stdlib/src/stdfile.cpp:100
    asm volatile("swi 70");
    8ee8:	ef000046 	svc	0x00000046
/Users/winterji/Desktop/FAV/Navazujici/OS/semestralka-kiv-os/sources/stdlib/src/stdfile.cpp:101
    asm volatile("mov %0, r0" : "=r" (retcode));
    8eec:	e1a03000 	mov	r3, r0
    8ef0:	e50b3008 	str	r3, [fp, #-8]
/Users/winterji/Desktop/FAV/Navazujici/OS/semestralka-kiv-os/sources/stdlib/src/stdfile.cpp:103

    return retcode;
    8ef4:	e51b3008 	ldr	r3, [fp, #-8]
/Users/winterji/Desktop/FAV/Navazujici/OS/semestralka-kiv-os/sources/stdlib/src/stdfile.cpp:104
}
    8ef8:	e1a00003 	mov	r0, r3
    8efc:	e28bd000 	add	sp, fp, #0
    8f00:	e49db004 	pop	{fp}		; (ldr fp, [sp], #4)
    8f04:	e12fff1e 	bx	lr

00008f08 <_Z5sleepjj>:
_Z5sleepjj():
/Users/winterji/Desktop/FAV/Navazujici/OS/semestralka-kiv-os/sources/stdlib/src/stdfile.cpp:107

bool sleep(uint32_t ticks, uint32_t notified_deadline)
{
    8f08:	e52db004 	push	{fp}		; (str fp, [sp, #-4]!)
    8f0c:	e28db000 	add	fp, sp, #0
    8f10:	e24dd014 	sub	sp, sp, #20
    8f14:	e50b0010 	str	r0, [fp, #-16]
    8f18:	e50b1014 	str	r1, [fp, #-20]	; 0xffffffec
/Users/winterji/Desktop/FAV/Navazujici/OS/semestralka-kiv-os/sources/stdlib/src/stdfile.cpp:110
    uint32_t retcode;

    asm volatile("mov r0, %0" : : "r" (ticks));
    8f1c:	e51b3010 	ldr	r3, [fp, #-16]
    8f20:	e1a00003 	mov	r0, r3
/Users/winterji/Desktop/FAV/Navazujici/OS/semestralka-kiv-os/sources/stdlib/src/stdfile.cpp:111
    asm volatile("mov r1, %0" : : "r" (notified_deadline));
    8f24:	e51b3014 	ldr	r3, [fp, #-20]	; 0xffffffec
    8f28:	e1a01003 	mov	r1, r3
/Users/winterji/Desktop/FAV/Navazujici/OS/semestralka-kiv-os/sources/stdlib/src/stdfile.cpp:112
    asm volatile("swi 3");
    8f2c:	ef000003 	svc	0x00000003
/Users/winterji/Desktop/FAV/Navazujici/OS/semestralka-kiv-os/sources/stdlib/src/stdfile.cpp:113
    asm volatile("mov %0, r0" : "=r" (retcode));
    8f30:	e1a03000 	mov	r3, r0
    8f34:	e50b3008 	str	r3, [fp, #-8]
/Users/winterji/Desktop/FAV/Navazujici/OS/semestralka-kiv-os/sources/stdlib/src/stdfile.cpp:115

    return retcode;
    8f38:	e51b3008 	ldr	r3, [fp, #-8]
    8f3c:	e3530000 	cmp	r3, #0
    8f40:	13a03001 	movne	r3, #1
    8f44:	03a03000 	moveq	r3, #0
    8f48:	e6ef3073 	uxtb	r3, r3
/Users/winterji/Desktop/FAV/Navazujici/OS/semestralka-kiv-os/sources/stdlib/src/stdfile.cpp:116
}
    8f4c:	e1a00003 	mov	r0, r3
    8f50:	e28bd000 	add	sp, fp, #0
    8f54:	e49db004 	pop	{fp}		; (ldr fp, [sp], #4)
    8f58:	e12fff1e 	bx	lr

00008f5c <_Z24get_active_process_countv>:
_Z24get_active_process_countv():
/Users/winterji/Desktop/FAV/Navazujici/OS/semestralka-kiv-os/sources/stdlib/src/stdfile.cpp:119

uint32_t get_active_process_count()
{
    8f5c:	e52db004 	push	{fp}		; (str fp, [sp, #-4]!)
    8f60:	e28db000 	add	fp, sp, #0
    8f64:	e24dd00c 	sub	sp, sp, #12
/Users/winterji/Desktop/FAV/Navazujici/OS/semestralka-kiv-os/sources/stdlib/src/stdfile.cpp:120
    const NGet_Sched_Info_Type req = NGet_Sched_Info_Type::Active_Process_Count;
    8f68:	e3a03000 	mov	r3, #0
    8f6c:	e50b3008 	str	r3, [fp, #-8]
/Users/winterji/Desktop/FAV/Navazujici/OS/semestralka-kiv-os/sources/stdlib/src/stdfile.cpp:123
    uint32_t retval;

    asm volatile("mov r0, %0" : : "r" (req));
    8f70:	e3a03000 	mov	r3, #0
    8f74:	e1a00003 	mov	r0, r3
/Users/winterji/Desktop/FAV/Navazujici/OS/semestralka-kiv-os/sources/stdlib/src/stdfile.cpp:124
    asm volatile("mov r1, %0" : : "r" (&retval));
    8f78:	e24b300c 	sub	r3, fp, #12
    8f7c:	e1a01003 	mov	r1, r3
/Users/winterji/Desktop/FAV/Navazujici/OS/semestralka-kiv-os/sources/stdlib/src/stdfile.cpp:125
    asm volatile("swi 4");
    8f80:	ef000004 	svc	0x00000004
/Users/winterji/Desktop/FAV/Navazujici/OS/semestralka-kiv-os/sources/stdlib/src/stdfile.cpp:127

    return retval;
    8f84:	e51b300c 	ldr	r3, [fp, #-12]
/Users/winterji/Desktop/FAV/Navazujici/OS/semestralka-kiv-os/sources/stdlib/src/stdfile.cpp:128
}
    8f88:	e1a00003 	mov	r0, r3
    8f8c:	e28bd000 	add	sp, fp, #0
    8f90:	e49db004 	pop	{fp}		; (ldr fp, [sp], #4)
    8f94:	e12fff1e 	bx	lr

00008f98 <_Z14get_tick_countv>:
_Z14get_tick_countv():
/Users/winterji/Desktop/FAV/Navazujici/OS/semestralka-kiv-os/sources/stdlib/src/stdfile.cpp:131

uint32_t get_tick_count()
{
    8f98:	e52db004 	push	{fp}		; (str fp, [sp, #-4]!)
    8f9c:	e28db000 	add	fp, sp, #0
    8fa0:	e24dd00c 	sub	sp, sp, #12
/Users/winterji/Desktop/FAV/Navazujici/OS/semestralka-kiv-os/sources/stdlib/src/stdfile.cpp:132
    const NGet_Sched_Info_Type req = NGet_Sched_Info_Type::Tick_Count;
    8fa4:	e3a03001 	mov	r3, #1
    8fa8:	e50b3008 	str	r3, [fp, #-8]
/Users/winterji/Desktop/FAV/Navazujici/OS/semestralka-kiv-os/sources/stdlib/src/stdfile.cpp:135
    uint32_t retval;

    asm volatile("mov r0, %0" : : "r" (req));
    8fac:	e3a03001 	mov	r3, #1
    8fb0:	e1a00003 	mov	r0, r3
/Users/winterji/Desktop/FAV/Navazujici/OS/semestralka-kiv-os/sources/stdlib/src/stdfile.cpp:136
    asm volatile("mov r1, %0" : : "r" (&retval));
    8fb4:	e24b300c 	sub	r3, fp, #12
    8fb8:	e1a01003 	mov	r1, r3
/Users/winterji/Desktop/FAV/Navazujici/OS/semestralka-kiv-os/sources/stdlib/src/stdfile.cpp:137
    asm volatile("swi 4");
    8fbc:	ef000004 	svc	0x00000004
/Users/winterji/Desktop/FAV/Navazujici/OS/semestralka-kiv-os/sources/stdlib/src/stdfile.cpp:139

    return retval;
    8fc0:	e51b300c 	ldr	r3, [fp, #-12]
/Users/winterji/Desktop/FAV/Navazujici/OS/semestralka-kiv-os/sources/stdlib/src/stdfile.cpp:140
}
    8fc4:	e1a00003 	mov	r0, r3
    8fc8:	e28bd000 	add	sp, fp, #0
    8fcc:	e49db004 	pop	{fp}		; (ldr fp, [sp], #4)
    8fd0:	e12fff1e 	bx	lr

00008fd4 <_Z17set_task_deadlinej>:
_Z17set_task_deadlinej():
/Users/winterji/Desktop/FAV/Navazujici/OS/semestralka-kiv-os/sources/stdlib/src/stdfile.cpp:143

void set_task_deadline(uint32_t tick_count_required)
{
    8fd4:	e52db004 	push	{fp}		; (str fp, [sp, #-4]!)
    8fd8:	e28db000 	add	fp, sp, #0
    8fdc:	e24dd014 	sub	sp, sp, #20
    8fe0:	e50b0010 	str	r0, [fp, #-16]
/Users/winterji/Desktop/FAV/Navazujici/OS/semestralka-kiv-os/sources/stdlib/src/stdfile.cpp:144
    const NDeadline_Subservice req = NDeadline_Subservice::Set_Relative;
    8fe4:	e3a03000 	mov	r3, #0
    8fe8:	e50b3008 	str	r3, [fp, #-8]
/Users/winterji/Desktop/FAV/Navazujici/OS/semestralka-kiv-os/sources/stdlib/src/stdfile.cpp:146

    asm volatile("mov r0, %0" : : "r" (req));
    8fec:	e3a03000 	mov	r3, #0
    8ff0:	e1a00003 	mov	r0, r3
/Users/winterji/Desktop/FAV/Navazujici/OS/semestralka-kiv-os/sources/stdlib/src/stdfile.cpp:147
    asm volatile("mov r1, %0" : : "r" (&tick_count_required));
    8ff4:	e24b3010 	sub	r3, fp, #16
    8ff8:	e1a01003 	mov	r1, r3
/Users/winterji/Desktop/FAV/Navazujici/OS/semestralka-kiv-os/sources/stdlib/src/stdfile.cpp:148
    asm volatile("swi 5");
    8ffc:	ef000005 	svc	0x00000005
/Users/winterji/Desktop/FAV/Navazujici/OS/semestralka-kiv-os/sources/stdlib/src/stdfile.cpp:149
}
    9000:	e320f000 	nop	{0}
    9004:	e28bd000 	add	sp, fp, #0
    9008:	e49db004 	pop	{fp}		; (ldr fp, [sp], #4)
    900c:	e12fff1e 	bx	lr

00009010 <_Z26get_task_ticks_to_deadlinev>:
_Z26get_task_ticks_to_deadlinev():
/Users/winterji/Desktop/FAV/Navazujici/OS/semestralka-kiv-os/sources/stdlib/src/stdfile.cpp:152

uint32_t get_task_ticks_to_deadline()
{
    9010:	e52db004 	push	{fp}		; (str fp, [sp, #-4]!)
    9014:	e28db000 	add	fp, sp, #0
    9018:	e24dd00c 	sub	sp, sp, #12
/Users/winterji/Desktop/FAV/Navazujici/OS/semestralka-kiv-os/sources/stdlib/src/stdfile.cpp:153
    const NDeadline_Subservice req = NDeadline_Subservice::Get_Remaining;
    901c:	e3a03001 	mov	r3, #1
    9020:	e50b3008 	str	r3, [fp, #-8]
/Users/winterji/Desktop/FAV/Navazujici/OS/semestralka-kiv-os/sources/stdlib/src/stdfile.cpp:156
    uint32_t ticks;

    asm volatile("mov r0, %0" : : "r" (req));
    9024:	e3a03001 	mov	r3, #1
    9028:	e1a00003 	mov	r0, r3
/Users/winterji/Desktop/FAV/Navazujici/OS/semestralka-kiv-os/sources/stdlib/src/stdfile.cpp:157
    asm volatile("mov r1, %0" : : "r" (&ticks));
    902c:	e24b300c 	sub	r3, fp, #12
    9030:	e1a01003 	mov	r1, r3
/Users/winterji/Desktop/FAV/Navazujici/OS/semestralka-kiv-os/sources/stdlib/src/stdfile.cpp:158
    asm volatile("swi 5");
    9034:	ef000005 	svc	0x00000005
/Users/winterji/Desktop/FAV/Navazujici/OS/semestralka-kiv-os/sources/stdlib/src/stdfile.cpp:160

    return ticks;
    9038:	e51b300c 	ldr	r3, [fp, #-12]
/Users/winterji/Desktop/FAV/Navazujici/OS/semestralka-kiv-os/sources/stdlib/src/stdfile.cpp:161
}
    903c:	e1a00003 	mov	r0, r3
    9040:	e28bd000 	add	sp, fp, #0
    9044:	e49db004 	pop	{fp}		; (ldr fp, [sp], #4)
    9048:	e12fff1e 	bx	lr

0000904c <_Z4pipePKcj>:
_Z4pipePKcj():
/Users/winterji/Desktop/FAV/Navazujici/OS/semestralka-kiv-os/sources/stdlib/src/stdfile.cpp:166

const char Pipe_File_Prefix[] = "SYS:pipe/";

uint32_t pipe(const char* name, uint32_t buf_size)
{
    904c:	e92d4800 	push	{fp, lr}
    9050:	e28db004 	add	fp, sp, #4
    9054:	e24dd050 	sub	sp, sp, #80	; 0x50
    9058:	e50b0050 	str	r0, [fp, #-80]	; 0xffffffb0
    905c:	e50b1054 	str	r1, [fp, #-84]	; 0xffffffac
/Users/winterji/Desktop/FAV/Navazujici/OS/semestralka-kiv-os/sources/stdlib/src/stdfile.cpp:168
    char fname[64];
    strncpy(fname, Pipe_File_Prefix, sizeof(Pipe_File_Prefix));
    9060:	e24b3048 	sub	r3, fp, #72	; 0x48
    9064:	e3a0200a 	mov	r2, #10
    9068:	e59f1088 	ldr	r1, [pc, #136]	; 90f8 <_Z4pipePKcj+0xac>
    906c:	e1a00003 	mov	r0, r3
    9070:	eb00014a 	bl	95a0 <_Z7strncpyPcPKci>
/Users/winterji/Desktop/FAV/Navazujici/OS/semestralka-kiv-os/sources/stdlib/src/stdfile.cpp:169
    strncpy(fname + sizeof(Pipe_File_Prefix), name, sizeof(fname) - sizeof(Pipe_File_Prefix) - 1);
    9074:	e24b3048 	sub	r3, fp, #72	; 0x48
    9078:	e283300a 	add	r3, r3, #10
    907c:	e3a02035 	mov	r2, #53	; 0x35
    9080:	e51b1050 	ldr	r1, [fp, #-80]	; 0xffffffb0
    9084:	e1a00003 	mov	r0, r3
    9088:	eb000144 	bl	95a0 <_Z7strncpyPcPKci>
/Users/winterji/Desktop/FAV/Navazujici/OS/semestralka-kiv-os/sources/stdlib/src/stdfile.cpp:171

    int ncur = sizeof(Pipe_File_Prefix) + strlen(name);
    908c:	e51b0050 	ldr	r0, [fp, #-80]	; 0xffffffb0
    9090:	eb00019d 	bl	970c <_Z6strlenPKc>
    9094:	e1a03000 	mov	r3, r0
    9098:	e283300a 	add	r3, r3, #10
    909c:	e50b3008 	str	r3, [fp, #-8]
/Users/winterji/Desktop/FAV/Navazujici/OS/semestralka-kiv-os/sources/stdlib/src/stdfile.cpp:173

    fname[ncur++] = '#';
    90a0:	e51b3008 	ldr	r3, [fp, #-8]
    90a4:	e2832001 	add	r2, r3, #1
    90a8:	e50b2008 	str	r2, [fp, #-8]
    90ac:	e2433004 	sub	r3, r3, #4
    90b0:	e083300b 	add	r3, r3, fp
    90b4:	e3a02023 	mov	r2, #35	; 0x23
    90b8:	e5432044 	strb	r2, [r3, #-68]	; 0xffffffbc
/Users/winterji/Desktop/FAV/Navazujici/OS/semestralka-kiv-os/sources/stdlib/src/stdfile.cpp:175

    itoa(buf_size, &fname[ncur], 10);
    90bc:	e24b2048 	sub	r2, fp, #72	; 0x48
    90c0:	e51b3008 	ldr	r3, [fp, #-8]
    90c4:	e0823003 	add	r3, r2, r3
    90c8:	e3a0200a 	mov	r2, #10
    90cc:	e1a01003 	mov	r1, r3
    90d0:	e51b0054 	ldr	r0, [fp, #-84]	; 0xffffffac
    90d4:	eb000008 	bl	90fc <_Z4itoajPcj>
/Users/winterji/Desktop/FAV/Navazujici/OS/semestralka-kiv-os/sources/stdlib/src/stdfile.cpp:177

    return open(fname, NFile_Open_Mode::Read_Write);
    90d8:	e24b3048 	sub	r3, fp, #72	; 0x48
    90dc:	e3a01002 	mov	r1, #2
    90e0:	e1a00003 	mov	r0, r3
    90e4:	ebffff0a 	bl	8d14 <_Z4openPKc15NFile_Open_Mode>
    90e8:	e1a03000 	mov	r3, r0
/Users/winterji/Desktop/FAV/Navazujici/OS/semestralka-kiv-os/sources/stdlib/src/stdfile.cpp:178
}
    90ec:	e1a00003 	mov	r0, r3
    90f0:	e24bd004 	sub	sp, fp, #4
    90f4:	e8bd8800 	pop	{fp, pc}
    90f8:	00009cc8 	andeq	r9, r0, r8, asr #25

000090fc <_Z4itoajPcj>:
_Z4itoajPcj():
/Users/winterji/Desktop/FAV/Navazujici/OS/semestralka-kiv-os/sources/stdlib/src/stdstring.cpp:9
{
    const char CharConvArr[] = "0123456789ABCDEF";
}

void itoa(unsigned int input, char* output, unsigned int base)
{
    90fc:	e92d4800 	push	{fp, lr}
    9100:	e28db004 	add	fp, sp, #4
    9104:	e24dd020 	sub	sp, sp, #32
    9108:	e50b0018 	str	r0, [fp, #-24]	; 0xffffffe8
    910c:	e50b101c 	str	r1, [fp, #-28]	; 0xffffffe4
    9110:	e50b2020 	str	r2, [fp, #-32]	; 0xffffffe0
/Users/winterji/Desktop/FAV/Navazujici/OS/semestralka-kiv-os/sources/stdlib/src/stdstring.cpp:10
	int i = 0;
    9114:	e3a03000 	mov	r3, #0
    9118:	e50b3008 	str	r3, [fp, #-8]
/Users/winterji/Desktop/FAV/Navazujici/OS/semestralka-kiv-os/sources/stdlib/src/stdstring.cpp:12

	while (input > 0)
    911c:	e51b3018 	ldr	r3, [fp, #-24]	; 0xffffffe8
    9120:	e3530000 	cmp	r3, #0
    9124:	0a000014 	beq	917c <_Z4itoajPcj+0x80>
/Users/winterji/Desktop/FAV/Navazujici/OS/semestralka-kiv-os/sources/stdlib/src/stdstring.cpp:14
	{
		output[i] = CharConvArr[input % base];
    9128:	e51b3018 	ldr	r3, [fp, #-24]	; 0xffffffe8
    912c:	e51b1020 	ldr	r1, [fp, #-32]	; 0xffffffe0
    9130:	e1a00003 	mov	r0, r3
    9134:	eb00025b 	bl	9aa8 <__aeabi_uidivmod>
    9138:	e1a03001 	mov	r3, r1
    913c:	e1a01003 	mov	r1, r3
    9140:	e51b3008 	ldr	r3, [fp, #-8]
    9144:	e51b201c 	ldr	r2, [fp, #-28]	; 0xffffffe4
    9148:	e0823003 	add	r3, r2, r3
    914c:	e59f2118 	ldr	r2, [pc, #280]	; 926c <_Z4itoajPcj+0x170>
    9150:	e7d22001 	ldrb	r2, [r2, r1]
    9154:	e5c32000 	strb	r2, [r3]
/Users/winterji/Desktop/FAV/Navazujici/OS/semestralka-kiv-os/sources/stdlib/src/stdstring.cpp:15
		input /= base;
    9158:	e51b1020 	ldr	r1, [fp, #-32]	; 0xffffffe0
    915c:	e51b0018 	ldr	r0, [fp, #-24]	; 0xffffffe8
    9160:	eb0001d5 	bl	98bc <__udivsi3>
    9164:	e1a03000 	mov	r3, r0
    9168:	e50b3018 	str	r3, [fp, #-24]	; 0xffffffe8
/Users/winterji/Desktop/FAV/Navazujici/OS/semestralka-kiv-os/sources/stdlib/src/stdstring.cpp:16
		i++;
    916c:	e51b3008 	ldr	r3, [fp, #-8]
    9170:	e2833001 	add	r3, r3, #1
    9174:	e50b3008 	str	r3, [fp, #-8]
/Users/winterji/Desktop/FAV/Navazujici/OS/semestralka-kiv-os/sources/stdlib/src/stdstring.cpp:12
	while (input > 0)
    9178:	eaffffe7 	b	911c <_Z4itoajPcj+0x20>
/Users/winterji/Desktop/FAV/Navazujici/OS/semestralka-kiv-os/sources/stdlib/src/stdstring.cpp:19
	}

    if (i == 0)
    917c:	e51b3008 	ldr	r3, [fp, #-8]
    9180:	e3530000 	cmp	r3, #0
    9184:	1a000007 	bne	91a8 <_Z4itoajPcj+0xac>
/Users/winterji/Desktop/FAV/Navazujici/OS/semestralka-kiv-os/sources/stdlib/src/stdstring.cpp:21
    {
        output[i] = CharConvArr[0];
    9188:	e51b3008 	ldr	r3, [fp, #-8]
    918c:	e51b201c 	ldr	r2, [fp, #-28]	; 0xffffffe4
    9190:	e0823003 	add	r3, r2, r3
    9194:	e3a02030 	mov	r2, #48	; 0x30
    9198:	e5c32000 	strb	r2, [r3]
/Users/winterji/Desktop/FAV/Navazujici/OS/semestralka-kiv-os/sources/stdlib/src/stdstring.cpp:22
        i++;
    919c:	e51b3008 	ldr	r3, [fp, #-8]
    91a0:	e2833001 	add	r3, r3, #1
    91a4:	e50b3008 	str	r3, [fp, #-8]
/Users/winterji/Desktop/FAV/Navazujici/OS/semestralka-kiv-os/sources/stdlib/src/stdstring.cpp:25
    }

	output[i] = '\0';
    91a8:	e51b3008 	ldr	r3, [fp, #-8]
    91ac:	e51b201c 	ldr	r2, [fp, #-28]	; 0xffffffe4
    91b0:	e0823003 	add	r3, r2, r3
    91b4:	e3a02000 	mov	r2, #0
    91b8:	e5c32000 	strb	r2, [r3]
/Users/winterji/Desktop/FAV/Navazujici/OS/semestralka-kiv-os/sources/stdlib/src/stdstring.cpp:26
	i--;
    91bc:	e51b3008 	ldr	r3, [fp, #-8]
    91c0:	e2433001 	sub	r3, r3, #1
    91c4:	e50b3008 	str	r3, [fp, #-8]
/Users/winterji/Desktop/FAV/Navazujici/OS/semestralka-kiv-os/sources/stdlib/src/stdstring.cpp:28

	for (int j = 0; j <= i/2; j++)
    91c8:	e3a03000 	mov	r3, #0
    91cc:	e50b300c 	str	r3, [fp, #-12]
/Users/winterji/Desktop/FAV/Navazujici/OS/semestralka-kiv-os/sources/stdlib/src/stdstring.cpp:28 (discriminator 3)
    91d0:	e51b3008 	ldr	r3, [fp, #-8]
    91d4:	e1a02fa3 	lsr	r2, r3, #31
    91d8:	e0823003 	add	r3, r2, r3
    91dc:	e1a030c3 	asr	r3, r3, #1
    91e0:	e1a02003 	mov	r2, r3
    91e4:	e51b300c 	ldr	r3, [fp, #-12]
    91e8:	e1530002 	cmp	r3, r2
    91ec:	ca00001b 	bgt	9260 <_Z4itoajPcj+0x164>
/Users/winterji/Desktop/FAV/Navazujici/OS/semestralka-kiv-os/sources/stdlib/src/stdstring.cpp:30 (discriminator 2)
	{
		char c = output[i - j];
    91f0:	e51b2008 	ldr	r2, [fp, #-8]
    91f4:	e51b300c 	ldr	r3, [fp, #-12]
    91f8:	e0423003 	sub	r3, r2, r3
    91fc:	e1a02003 	mov	r2, r3
    9200:	e51b301c 	ldr	r3, [fp, #-28]	; 0xffffffe4
    9204:	e0833002 	add	r3, r3, r2
    9208:	e5d33000 	ldrb	r3, [r3]
    920c:	e54b300d 	strb	r3, [fp, #-13]
/Users/winterji/Desktop/FAV/Navazujici/OS/semestralka-kiv-os/sources/stdlib/src/stdstring.cpp:31 (discriminator 2)
		output[i - j] = output[j];
    9210:	e51b300c 	ldr	r3, [fp, #-12]
    9214:	e51b201c 	ldr	r2, [fp, #-28]	; 0xffffffe4
    9218:	e0822003 	add	r2, r2, r3
    921c:	e51b1008 	ldr	r1, [fp, #-8]
    9220:	e51b300c 	ldr	r3, [fp, #-12]
    9224:	e0413003 	sub	r3, r1, r3
    9228:	e1a01003 	mov	r1, r3
    922c:	e51b301c 	ldr	r3, [fp, #-28]	; 0xffffffe4
    9230:	e0833001 	add	r3, r3, r1
    9234:	e5d22000 	ldrb	r2, [r2]
    9238:	e5c32000 	strb	r2, [r3]
/Users/winterji/Desktop/FAV/Navazujici/OS/semestralka-kiv-os/sources/stdlib/src/stdstring.cpp:32 (discriminator 2)
		output[j] = c;
    923c:	e51b300c 	ldr	r3, [fp, #-12]
    9240:	e51b201c 	ldr	r2, [fp, #-28]	; 0xffffffe4
    9244:	e0823003 	add	r3, r2, r3
    9248:	e55b200d 	ldrb	r2, [fp, #-13]
    924c:	e5c32000 	strb	r2, [r3]
/Users/winterji/Desktop/FAV/Navazujici/OS/semestralka-kiv-os/sources/stdlib/src/stdstring.cpp:28 (discriminator 2)
	for (int j = 0; j <= i/2; j++)
    9250:	e51b300c 	ldr	r3, [fp, #-12]
    9254:	e2833001 	add	r3, r3, #1
    9258:	e50b300c 	str	r3, [fp, #-12]
    925c:	eaffffdb 	b	91d0 <_Z4itoajPcj+0xd4>
/Users/winterji/Desktop/FAV/Navazujici/OS/semestralka-kiv-os/sources/stdlib/src/stdstring.cpp:34
	}
}
    9260:	e320f000 	nop	{0}
    9264:	e24bd004 	sub	sp, fp, #4
    9268:	e8bd8800 	pop	{fp, pc}
    926c:	00009cd4 	ldrdeq	r9, [r0], -r4

00009270 <_Z4atoiPKc>:
_Z4atoiPKc():
/Users/winterji/Desktop/FAV/Navazujici/OS/semestralka-kiv-os/sources/stdlib/src/stdstring.cpp:37

int atoi(const char* input)
{
    9270:	e52db004 	push	{fp}		; (str fp, [sp, #-4]!)
    9274:	e28db000 	add	fp, sp, #0
    9278:	e24dd014 	sub	sp, sp, #20
    927c:	e50b0010 	str	r0, [fp, #-16]
/Users/winterji/Desktop/FAV/Navazujici/OS/semestralka-kiv-os/sources/stdlib/src/stdstring.cpp:38
	int output = 0;
    9280:	e3a03000 	mov	r3, #0
    9284:	e50b3008 	str	r3, [fp, #-8]
/Users/winterji/Desktop/FAV/Navazujici/OS/semestralka-kiv-os/sources/stdlib/src/stdstring.cpp:40

	while (*input != '\0')
    9288:	e51b3010 	ldr	r3, [fp, #-16]
    928c:	e5d33000 	ldrb	r3, [r3]
    9290:	e3530000 	cmp	r3, #0
    9294:	0a000017 	beq	92f8 <_Z4atoiPKc+0x88>
/Users/winterji/Desktop/FAV/Navazujici/OS/semestralka-kiv-os/sources/stdlib/src/stdstring.cpp:42
	{
		output *= 10;
    9298:	e51b2008 	ldr	r2, [fp, #-8]
    929c:	e1a03002 	mov	r3, r2
    92a0:	e1a03103 	lsl	r3, r3, #2
    92a4:	e0833002 	add	r3, r3, r2
    92a8:	e1a03083 	lsl	r3, r3, #1
    92ac:	e50b3008 	str	r3, [fp, #-8]
/Users/winterji/Desktop/FAV/Navazujici/OS/semestralka-kiv-os/sources/stdlib/src/stdstring.cpp:43
		if (*input > '9' || *input < '0')
    92b0:	e51b3010 	ldr	r3, [fp, #-16]
    92b4:	e5d33000 	ldrb	r3, [r3]
    92b8:	e3530039 	cmp	r3, #57	; 0x39
    92bc:	8a00000d 	bhi	92f8 <_Z4atoiPKc+0x88>
/Users/winterji/Desktop/FAV/Navazujici/OS/semestralka-kiv-os/sources/stdlib/src/stdstring.cpp:43 (discriminator 1)
    92c0:	e51b3010 	ldr	r3, [fp, #-16]
    92c4:	e5d33000 	ldrb	r3, [r3]
    92c8:	e353002f 	cmp	r3, #47	; 0x2f
    92cc:	9a000009 	bls	92f8 <_Z4atoiPKc+0x88>
/Users/winterji/Desktop/FAV/Navazujici/OS/semestralka-kiv-os/sources/stdlib/src/stdstring.cpp:46
			break;

		output += *input - '0';
    92d0:	e51b3010 	ldr	r3, [fp, #-16]
    92d4:	e5d33000 	ldrb	r3, [r3]
    92d8:	e2433030 	sub	r3, r3, #48	; 0x30
    92dc:	e51b2008 	ldr	r2, [fp, #-8]
    92e0:	e0823003 	add	r3, r2, r3
    92e4:	e50b3008 	str	r3, [fp, #-8]
/Users/winterji/Desktop/FAV/Navazujici/OS/semestralka-kiv-os/sources/stdlib/src/stdstring.cpp:48

		input++;
    92e8:	e51b3010 	ldr	r3, [fp, #-16]
    92ec:	e2833001 	add	r3, r3, #1
    92f0:	e50b3010 	str	r3, [fp, #-16]
/Users/winterji/Desktop/FAV/Navazujici/OS/semestralka-kiv-os/sources/stdlib/src/stdstring.cpp:40
	while (*input != '\0')
    92f4:	eaffffe3 	b	9288 <_Z4atoiPKc+0x18>
/Users/winterji/Desktop/FAV/Navazujici/OS/semestralka-kiv-os/sources/stdlib/src/stdstring.cpp:51
	}

	return output;
    92f8:	e51b3008 	ldr	r3, [fp, #-8]
/Users/winterji/Desktop/FAV/Navazujici/OS/semestralka-kiv-os/sources/stdlib/src/stdstring.cpp:52
}
    92fc:	e1a00003 	mov	r0, r3
    9300:	e28bd000 	add	sp, fp, #0
    9304:	e49db004 	pop	{fp}		; (ldr fp, [sp], #4)
    9308:	e12fff1e 	bx	lr

0000930c <_Z4ftoafPcj>:
_Z4ftoafPcj():
/Users/winterji/Desktop/FAV/Navazujici/OS/semestralka-kiv-os/sources/stdlib/src/stdstring.cpp:55

char* ftoa(float input, char* output, unsigned int decimal_places)
{
    930c:	e52db004 	push	{fp}		; (str fp, [sp, #-4]!)
    9310:	e28db000 	add	fp, sp, #0
    9314:	e24dd03c 	sub	sp, sp, #60	; 0x3c
    9318:	ed0b0a0c 	vstr	s0, [fp, #-48]	; 0xffffffd0
    931c:	e50b0034 	str	r0, [fp, #-52]	; 0xffffffcc
    9320:	e50b1038 	str	r1, [fp, #-56]	; 0xffffffc8
/Users/winterji/Desktop/FAV/Navazujici/OS/semestralka-kiv-os/sources/stdlib/src/stdstring.cpp:56
	char* ptr = output;
    9324:	e51b3034 	ldr	r3, [fp, #-52]	; 0xffffffcc
    9328:	e50b3008 	str	r3, [fp, #-8]
/Users/winterji/Desktop/FAV/Navazujici/OS/semestralka-kiv-os/sources/stdlib/src/stdstring.cpp:59

    // Handle negative numbers
    if (input < 0) {
    932c:	ed5b7a0c 	vldr	s15, [fp, #-48]	; 0xffffffd0
    9330:	eef57ac0 	vcmpe.f32	s15, #0.0
    9334:	eef1fa10 	vmrs	APSR_nzcv, fpscr
    9338:	5a000007 	bpl	935c <_Z4ftoafPcj+0x50>
/Users/winterji/Desktop/FAV/Navazujici/OS/semestralka-kiv-os/sources/stdlib/src/stdstring.cpp:60
        *ptr++ = '-';
    933c:	e51b3008 	ldr	r3, [fp, #-8]
    9340:	e2832001 	add	r2, r3, #1
    9344:	e50b2008 	str	r2, [fp, #-8]
    9348:	e3a0202d 	mov	r2, #45	; 0x2d
    934c:	e5c32000 	strb	r2, [r3]
/Users/winterji/Desktop/FAV/Navazujici/OS/semestralka-kiv-os/sources/stdlib/src/stdstring.cpp:61
        input = -input;
    9350:	ed5b7a0c 	vldr	s15, [fp, #-48]	; 0xffffffd0
    9354:	eef17a67 	vneg.f32	s15, s15
    9358:	ed4b7a0c 	vstr	s15, [fp, #-48]	; 0xffffffd0
/Users/winterji/Desktop/FAV/Navazujici/OS/semestralka-kiv-os/sources/stdlib/src/stdstring.cpp:65
    }

    // Extract the integer part
    int int_part = (int)input;
    935c:	ed5b7a0c 	vldr	s15, [fp, #-48]	; 0xffffffd0
    9360:	eefd7ae7 	vcvt.s32.f32	s15, s15
    9364:	ee173a90 	vmov	r3, s15
    9368:	e50b300c 	str	r3, [fp, #-12]
/Users/winterji/Desktop/FAV/Navazujici/OS/semestralka-kiv-os/sources/stdlib/src/stdstring.cpp:66
    float fraction = input - int_part;
    936c:	e51b300c 	ldr	r3, [fp, #-12]
    9370:	ee073a90 	vmov	s15, r3
    9374:	eef87ae7 	vcvt.f32.s32	s15, s15
    9378:	ed1b7a0c 	vldr	s14, [fp, #-48]	; 0xffffffd0
    937c:	ee777a67 	vsub.f32	s15, s14, s15
    9380:	ed4b7a04 	vstr	s15, [fp, #-16]
/Users/winterji/Desktop/FAV/Navazujici/OS/semestralka-kiv-os/sources/stdlib/src/stdstring.cpp:70

    // Convert the integer part to a string
    char int_str[12]; // Temporary buffer for the integer part
    char* int_ptr = int_str;
    9384:	e24b302c 	sub	r3, fp, #44	; 0x2c
    9388:	e50b3014 	str	r3, [fp, #-20]	; 0xffffffec
/Users/winterji/Desktop/FAV/Navazujici/OS/semestralka-kiv-os/sources/stdlib/src/stdstring.cpp:71
    if (int_part == 0) {
    938c:	e51b300c 	ldr	r3, [fp, #-12]
    9390:	e3530000 	cmp	r3, #0
    9394:	1a000005 	bne	93b0 <_Z4ftoafPcj+0xa4>
/Users/winterji/Desktop/FAV/Navazujici/OS/semestralka-kiv-os/sources/stdlib/src/stdstring.cpp:72
        *int_ptr++ = '0';
    9398:	e51b3014 	ldr	r3, [fp, #-20]	; 0xffffffec
    939c:	e2832001 	add	r2, r3, #1
    93a0:	e50b2014 	str	r2, [fp, #-20]	; 0xffffffec
    93a4:	e3a02030 	mov	r2, #48	; 0x30
    93a8:	e5c32000 	strb	r2, [r3]
    93ac:	ea00001c 	b	9424 <_Z4ftoafPcj+0x118>
/Users/winterji/Desktop/FAV/Navazujici/OS/semestralka-kiv-os/sources/stdlib/src/stdstring.cpp:74
    } else {
        while (int_part > 0) {
    93b0:	e51b300c 	ldr	r3, [fp, #-12]
    93b4:	e3530000 	cmp	r3, #0
    93b8:	da000019 	ble	9424 <_Z4ftoafPcj+0x118>
/Users/winterji/Desktop/FAV/Navazujici/OS/semestralka-kiv-os/sources/stdlib/src/stdstring.cpp:75
            *int_ptr++ = '0' + (int_part % 10);
    93bc:	e51b200c 	ldr	r2, [fp, #-12]
    93c0:	e59f31d4 	ldr	r3, [pc, #468]	; 959c <_Z4ftoafPcj+0x290>
    93c4:	e0c31293 	smull	r1, r3, r3, r2
    93c8:	e1a01143 	asr	r1, r3, #2
    93cc:	e1a03fc2 	asr	r3, r2, #31
    93d0:	e0411003 	sub	r1, r1, r3
    93d4:	e1a03001 	mov	r3, r1
    93d8:	e1a03103 	lsl	r3, r3, #2
    93dc:	e0833001 	add	r3, r3, r1
    93e0:	e1a03083 	lsl	r3, r3, #1
    93e4:	e0421003 	sub	r1, r2, r3
    93e8:	e6ef2071 	uxtb	r2, r1
    93ec:	e51b3014 	ldr	r3, [fp, #-20]	; 0xffffffec
    93f0:	e2831001 	add	r1, r3, #1
    93f4:	e50b1014 	str	r1, [fp, #-20]	; 0xffffffec
    93f8:	e2822030 	add	r2, r2, #48	; 0x30
    93fc:	e6ef2072 	uxtb	r2, r2
    9400:	e5c32000 	strb	r2, [r3]
/Users/winterji/Desktop/FAV/Navazujici/OS/semestralka-kiv-os/sources/stdlib/src/stdstring.cpp:76
            int_part /= 10;
    9404:	e51b300c 	ldr	r3, [fp, #-12]
    9408:	e59f218c 	ldr	r2, [pc, #396]	; 959c <_Z4ftoafPcj+0x290>
    940c:	e0c21392 	smull	r1, r2, r2, r3
    9410:	e1a02142 	asr	r2, r2, #2
    9414:	e1a03fc3 	asr	r3, r3, #31
    9418:	e0423003 	sub	r3, r2, r3
    941c:	e50b300c 	str	r3, [fp, #-12]
/Users/winterji/Desktop/FAV/Navazujici/OS/semestralka-kiv-os/sources/stdlib/src/stdstring.cpp:74
        while (int_part > 0) {
    9420:	eaffffe2 	b	93b0 <_Z4ftoafPcj+0xa4>
/Users/winterji/Desktop/FAV/Navazujici/OS/semestralka-kiv-os/sources/stdlib/src/stdstring.cpp:81
        }
    }

    // Reverse the integer part string and write to buffer
    while (int_ptr != int_str) {
    9424:	e24b302c 	sub	r3, fp, #44	; 0x2c
    9428:	e51b2014 	ldr	r2, [fp, #-20]	; 0xffffffec
    942c:	e1520003 	cmp	r2, r3
    9430:	0a000009 	beq	945c <_Z4ftoafPcj+0x150>
/Users/winterji/Desktop/FAV/Navazujici/OS/semestralka-kiv-os/sources/stdlib/src/stdstring.cpp:82
        *ptr++ = *(--int_ptr);
    9434:	e51b3014 	ldr	r3, [fp, #-20]	; 0xffffffec
    9438:	e2433001 	sub	r3, r3, #1
    943c:	e50b3014 	str	r3, [fp, #-20]	; 0xffffffec
    9440:	e51b3008 	ldr	r3, [fp, #-8]
    9444:	e2832001 	add	r2, r3, #1
    9448:	e50b2008 	str	r2, [fp, #-8]
    944c:	e51b2014 	ldr	r2, [fp, #-20]	; 0xffffffec
    9450:	e5d22000 	ldrb	r2, [r2]
    9454:	e5c32000 	strb	r2, [r3]
/Users/winterji/Desktop/FAV/Navazujici/OS/semestralka-kiv-os/sources/stdlib/src/stdstring.cpp:81
    while (int_ptr != int_str) {
    9458:	eafffff1 	b	9424 <_Z4ftoafPcj+0x118>
/Users/winterji/Desktop/FAV/Navazujici/OS/semestralka-kiv-os/sources/stdlib/src/stdstring.cpp:86
    }

    // Add the decimal point
    if (decimal_places > 0) {
    945c:	e51b3038 	ldr	r3, [fp, #-56]	; 0xffffffc8
    9460:	e3530000 	cmp	r3, #0
    9464:	0a000004 	beq	947c <_Z4ftoafPcj+0x170>
/Users/winterji/Desktop/FAV/Navazujici/OS/semestralka-kiv-os/sources/stdlib/src/stdstring.cpp:87
        *ptr++ = '.';
    9468:	e51b3008 	ldr	r3, [fp, #-8]
    946c:	e2832001 	add	r2, r3, #1
    9470:	e50b2008 	str	r2, [fp, #-8]
    9474:	e3a0202e 	mov	r2, #46	; 0x2e
    9478:	e5c32000 	strb	r2, [r3]
/Users/winterji/Desktop/FAV/Navazujici/OS/semestralka-kiv-os/sources/stdlib/src/stdstring.cpp:91
    }

    // Convert the fractional part to the specified number of decimal places
    for (int i = 0; i < decimal_places; i++) {
    947c:	e3a03000 	mov	r3, #0
    9480:	e50b3018 	str	r3, [fp, #-24]	; 0xffffffe8
/Users/winterji/Desktop/FAV/Navazujici/OS/semestralka-kiv-os/sources/stdlib/src/stdstring.cpp:91 (discriminator 3)
    9484:	e51b3018 	ldr	r3, [fp, #-24]	; 0xffffffe8
    9488:	e51b2038 	ldr	r2, [fp, #-56]	; 0xffffffc8
    948c:	e1520003 	cmp	r2, r3
    9490:	9a000019 	bls	94fc <_Z4ftoafPcj+0x1f0>
/Users/winterji/Desktop/FAV/Navazujici/OS/semestralka-kiv-os/sources/stdlib/src/stdstring.cpp:92 (discriminator 2)
        fraction *= 10;
    9494:	ed5b7a04 	vldr	s15, [fp, #-16]
    9498:	ed9f7a3e 	vldr	s14, [pc, #248]	; 9598 <_Z4ftoafPcj+0x28c>
    949c:	ee677a87 	vmul.f32	s15, s15, s14
    94a0:	ed4b7a04 	vstr	s15, [fp, #-16]
/Users/winterji/Desktop/FAV/Navazujici/OS/semestralka-kiv-os/sources/stdlib/src/stdstring.cpp:93 (discriminator 2)
        int digit = (int)fraction;
    94a4:	ed5b7a04 	vldr	s15, [fp, #-16]
    94a8:	eefd7ae7 	vcvt.s32.f32	s15, s15
    94ac:	ee173a90 	vmov	r3, s15
    94b0:	e50b3020 	str	r3, [fp, #-32]	; 0xffffffe0
/Users/winterji/Desktop/FAV/Navazujici/OS/semestralka-kiv-os/sources/stdlib/src/stdstring.cpp:94 (discriminator 2)
        *ptr++ = '0' + digit;
    94b4:	e51b3020 	ldr	r3, [fp, #-32]	; 0xffffffe0
    94b8:	e6ef2073 	uxtb	r2, r3
    94bc:	e51b3008 	ldr	r3, [fp, #-8]
    94c0:	e2831001 	add	r1, r3, #1
    94c4:	e50b1008 	str	r1, [fp, #-8]
    94c8:	e2822030 	add	r2, r2, #48	; 0x30
    94cc:	e6ef2072 	uxtb	r2, r2
    94d0:	e5c32000 	strb	r2, [r3]
/Users/winterji/Desktop/FAV/Navazujici/OS/semestralka-kiv-os/sources/stdlib/src/stdstring.cpp:95 (discriminator 2)
        fraction -= digit;
    94d4:	e51b3020 	ldr	r3, [fp, #-32]	; 0xffffffe0
    94d8:	ee073a90 	vmov	s15, r3
    94dc:	eef87ae7 	vcvt.f32.s32	s15, s15
    94e0:	ed1b7a04 	vldr	s14, [fp, #-16]
    94e4:	ee777a67 	vsub.f32	s15, s14, s15
    94e8:	ed4b7a04 	vstr	s15, [fp, #-16]
/Users/winterji/Desktop/FAV/Navazujici/OS/semestralka-kiv-os/sources/stdlib/src/stdstring.cpp:91 (discriminator 2)
    for (int i = 0; i < decimal_places; i++) {
    94ec:	e51b3018 	ldr	r3, [fp, #-24]	; 0xffffffe8
    94f0:	e2833001 	add	r3, r3, #1
    94f4:	e50b3018 	str	r3, [fp, #-24]	; 0xffffffe8
    94f8:	eaffffe1 	b	9484 <_Z4ftoafPcj+0x178>
/Users/winterji/Desktop/FAV/Navazujici/OS/semestralka-kiv-os/sources/stdlib/src/stdstring.cpp:99
    }

    // Null-terminate the string
    *ptr = '\0';
    94fc:	e51b3008 	ldr	r3, [fp, #-8]
    9500:	e3a02000 	mov	r2, #0
    9504:	e5c32000 	strb	r2, [r3]
/Users/winterji/Desktop/FAV/Navazujici/OS/semestralka-kiv-os/sources/stdlib/src/stdstring.cpp:102

    // Remove trailing zeros if any decimal places were specified
    if (decimal_places > 0) {
    9508:	e51b3038 	ldr	r3, [fp, #-56]	; 0xffffffc8
    950c:	e3530000 	cmp	r3, #0
    9510:	0a00001b 	beq	9584 <_Z4ftoafPcj+0x278>
/Users/winterji/Desktop/FAV/Navazujici/OS/semestralka-kiv-os/sources/stdlib/src/stdstring.cpp:103
        char* end = ptr - 1;
    9514:	e51b3008 	ldr	r3, [fp, #-8]
    9518:	e2433001 	sub	r3, r3, #1
    951c:	e50b301c 	str	r3, [fp, #-28]	; 0xffffffe4
/Users/winterji/Desktop/FAV/Navazujici/OS/semestralka-kiv-os/sources/stdlib/src/stdstring.cpp:104
        while (end > output && *end == '0') {
    9520:	e51b201c 	ldr	r2, [fp, #-28]	; 0xffffffe4
    9524:	e51b3034 	ldr	r3, [fp, #-52]	; 0xffffffcc
    9528:	e1520003 	cmp	r2, r3
    952c:	9a000009 	bls	9558 <_Z4ftoafPcj+0x24c>
/Users/winterji/Desktop/FAV/Navazujici/OS/semestralka-kiv-os/sources/stdlib/src/stdstring.cpp:104 (discriminator 1)
    9530:	e51b301c 	ldr	r3, [fp, #-28]	; 0xffffffe4
    9534:	e5d33000 	ldrb	r3, [r3]
    9538:	e3530030 	cmp	r3, #48	; 0x30
    953c:	1a000005 	bne	9558 <_Z4ftoafPcj+0x24c>
/Users/winterji/Desktop/FAV/Navazujici/OS/semestralka-kiv-os/sources/stdlib/src/stdstring.cpp:105
            *end-- = '\0';
    9540:	e51b301c 	ldr	r3, [fp, #-28]	; 0xffffffe4
    9544:	e2432001 	sub	r2, r3, #1
    9548:	e50b201c 	str	r2, [fp, #-28]	; 0xffffffe4
    954c:	e3a02000 	mov	r2, #0
    9550:	e5c32000 	strb	r2, [r3]
/Users/winterji/Desktop/FAV/Navazujici/OS/semestralka-kiv-os/sources/stdlib/src/stdstring.cpp:104
        while (end > output && *end == '0') {
    9554:	eafffff1 	b	9520 <_Z4ftoafPcj+0x214>
/Users/winterji/Desktop/FAV/Navazujici/OS/semestralka-kiv-os/sources/stdlib/src/stdstring.cpp:107
        }
        if (end > output && *end == '.') {
    9558:	e51b201c 	ldr	r2, [fp, #-28]	; 0xffffffe4
    955c:	e51b3034 	ldr	r3, [fp, #-52]	; 0xffffffcc
    9560:	e1520003 	cmp	r2, r3
    9564:	9a000006 	bls	9584 <_Z4ftoafPcj+0x278>
/Users/winterji/Desktop/FAV/Navazujici/OS/semestralka-kiv-os/sources/stdlib/src/stdstring.cpp:107 (discriminator 1)
    9568:	e51b301c 	ldr	r3, [fp, #-28]	; 0xffffffe4
    956c:	e5d33000 	ldrb	r3, [r3]
    9570:	e353002e 	cmp	r3, #46	; 0x2e
    9574:	1a000002 	bne	9584 <_Z4ftoafPcj+0x278>
/Users/winterji/Desktop/FAV/Navazujici/OS/semestralka-kiv-os/sources/stdlib/src/stdstring.cpp:108
            *end = '\0'; // Remove the decimal point if no fractional part remains
    9578:	e51b301c 	ldr	r3, [fp, #-28]	; 0xffffffe4
    957c:	e3a02000 	mov	r2, #0
    9580:	e5c32000 	strb	r2, [r3]
/Users/winterji/Desktop/FAV/Navazujici/OS/semestralka-kiv-os/sources/stdlib/src/stdstring.cpp:112
        }
    }

    return output;
    9584:	e51b3034 	ldr	r3, [fp, #-52]	; 0xffffffcc
/Users/winterji/Desktop/FAV/Navazujici/OS/semestralka-kiv-os/sources/stdlib/src/stdstring.cpp:113
}
    9588:	e1a00003 	mov	r0, r3
    958c:	e28bd000 	add	sp, fp, #0
    9590:	e49db004 	pop	{fp}		; (ldr fp, [sp], #4)
    9594:	e12fff1e 	bx	lr
    9598:	41200000 			; <UNDEFINED> instruction: 0x41200000
    959c:	66666667 	strbtvs	r6, [r6], -r7, ror #12

000095a0 <_Z7strncpyPcPKci>:
_Z7strncpyPcPKci():
/Users/winterji/Desktop/FAV/Navazujici/OS/semestralka-kiv-os/sources/stdlib/src/stdstring.cpp:116

char* strncpy(char* dest, const char *src, int num)
{
    95a0:	e52db004 	push	{fp}		; (str fp, [sp, #-4]!)
    95a4:	e28db000 	add	fp, sp, #0
    95a8:	e24dd01c 	sub	sp, sp, #28
    95ac:	e50b0010 	str	r0, [fp, #-16]
    95b0:	e50b1014 	str	r1, [fp, #-20]	; 0xffffffec
    95b4:	e50b2018 	str	r2, [fp, #-24]	; 0xffffffe8
/Users/winterji/Desktop/FAV/Navazujici/OS/semestralka-kiv-os/sources/stdlib/src/stdstring.cpp:119
	int i;

	for (i = 0; i < num && src[i] != '\0'; i++)
    95b8:	e3a03000 	mov	r3, #0
    95bc:	e50b3008 	str	r3, [fp, #-8]
/Users/winterji/Desktop/FAV/Navazujici/OS/semestralka-kiv-os/sources/stdlib/src/stdstring.cpp:119 (discriminator 4)
    95c0:	e51b2008 	ldr	r2, [fp, #-8]
    95c4:	e51b3018 	ldr	r3, [fp, #-24]	; 0xffffffe8
    95c8:	e1520003 	cmp	r2, r3
    95cc:	aa000011 	bge	9618 <_Z7strncpyPcPKci+0x78>
/Users/winterji/Desktop/FAV/Navazujici/OS/semestralka-kiv-os/sources/stdlib/src/stdstring.cpp:119 (discriminator 2)
    95d0:	e51b3008 	ldr	r3, [fp, #-8]
    95d4:	e51b2014 	ldr	r2, [fp, #-20]	; 0xffffffec
    95d8:	e0823003 	add	r3, r2, r3
    95dc:	e5d33000 	ldrb	r3, [r3]
    95e0:	e3530000 	cmp	r3, #0
    95e4:	0a00000b 	beq	9618 <_Z7strncpyPcPKci+0x78>
/Users/winterji/Desktop/FAV/Navazujici/OS/semestralka-kiv-os/sources/stdlib/src/stdstring.cpp:120 (discriminator 3)
		dest[i] = src[i];
    95e8:	e51b3008 	ldr	r3, [fp, #-8]
    95ec:	e51b2014 	ldr	r2, [fp, #-20]	; 0xffffffec
    95f0:	e0822003 	add	r2, r2, r3
    95f4:	e51b3008 	ldr	r3, [fp, #-8]
    95f8:	e51b1010 	ldr	r1, [fp, #-16]
    95fc:	e0813003 	add	r3, r1, r3
    9600:	e5d22000 	ldrb	r2, [r2]
    9604:	e5c32000 	strb	r2, [r3]
/Users/winterji/Desktop/FAV/Navazujici/OS/semestralka-kiv-os/sources/stdlib/src/stdstring.cpp:119 (discriminator 3)
	for (i = 0; i < num && src[i] != '\0'; i++)
    9608:	e51b3008 	ldr	r3, [fp, #-8]
    960c:	e2833001 	add	r3, r3, #1
    9610:	e50b3008 	str	r3, [fp, #-8]
    9614:	eaffffe9 	b	95c0 <_Z7strncpyPcPKci+0x20>
/Users/winterji/Desktop/FAV/Navazujici/OS/semestralka-kiv-os/sources/stdlib/src/stdstring.cpp:121 (discriminator 2)
	for (; i < num; i++)
    9618:	e51b2008 	ldr	r2, [fp, #-8]
    961c:	e51b3018 	ldr	r3, [fp, #-24]	; 0xffffffe8
    9620:	e1520003 	cmp	r2, r3
    9624:	aa000008 	bge	964c <_Z7strncpyPcPKci+0xac>
/Users/winterji/Desktop/FAV/Navazujici/OS/semestralka-kiv-os/sources/stdlib/src/stdstring.cpp:122 (discriminator 1)
		dest[i] = '\0';
    9628:	e51b3008 	ldr	r3, [fp, #-8]
    962c:	e51b2010 	ldr	r2, [fp, #-16]
    9630:	e0823003 	add	r3, r2, r3
    9634:	e3a02000 	mov	r2, #0
    9638:	e5c32000 	strb	r2, [r3]
/Users/winterji/Desktop/FAV/Navazujici/OS/semestralka-kiv-os/sources/stdlib/src/stdstring.cpp:121 (discriminator 1)
	for (; i < num; i++)
    963c:	e51b3008 	ldr	r3, [fp, #-8]
    9640:	e2833001 	add	r3, r3, #1
    9644:	e50b3008 	str	r3, [fp, #-8]
    9648:	eafffff2 	b	9618 <_Z7strncpyPcPKci+0x78>
/Users/winterji/Desktop/FAV/Navazujici/OS/semestralka-kiv-os/sources/stdlib/src/stdstring.cpp:124

   return dest;
    964c:	e51b3010 	ldr	r3, [fp, #-16]
/Users/winterji/Desktop/FAV/Navazujici/OS/semestralka-kiv-os/sources/stdlib/src/stdstring.cpp:125
}
    9650:	e1a00003 	mov	r0, r3
    9654:	e28bd000 	add	sp, fp, #0
    9658:	e49db004 	pop	{fp}		; (ldr fp, [sp], #4)
    965c:	e12fff1e 	bx	lr

00009660 <_Z7strncmpPKcS0_i>:
_Z7strncmpPKcS0_i():
/Users/winterji/Desktop/FAV/Navazujici/OS/semestralka-kiv-os/sources/stdlib/src/stdstring.cpp:128

int strncmp(const char *s1, const char *s2, int num)
{
    9660:	e52db004 	push	{fp}		; (str fp, [sp, #-4]!)
    9664:	e28db000 	add	fp, sp, #0
    9668:	e24dd01c 	sub	sp, sp, #28
    966c:	e50b0010 	str	r0, [fp, #-16]
    9670:	e50b1014 	str	r1, [fp, #-20]	; 0xffffffec
    9674:	e50b2018 	str	r2, [fp, #-24]	; 0xffffffe8
/Users/winterji/Desktop/FAV/Navazujici/OS/semestralka-kiv-os/sources/stdlib/src/stdstring.cpp:130
	unsigned char u1, u2;
  	while (num-- > 0)
    9678:	e51b3018 	ldr	r3, [fp, #-24]	; 0xffffffe8
    967c:	e2432001 	sub	r2, r3, #1
    9680:	e50b2018 	str	r2, [fp, #-24]	; 0xffffffe8
    9684:	e3530000 	cmp	r3, #0
    9688:	c3a03001 	movgt	r3, #1
    968c:	d3a03000 	movle	r3, #0
    9690:	e6ef3073 	uxtb	r3, r3
    9694:	e3530000 	cmp	r3, #0
    9698:	0a000016 	beq	96f8 <_Z7strncmpPKcS0_i+0x98>
/Users/winterji/Desktop/FAV/Navazujici/OS/semestralka-kiv-os/sources/stdlib/src/stdstring.cpp:132
    {
      	u1 = (unsigned char) *s1++;
    969c:	e51b3010 	ldr	r3, [fp, #-16]
    96a0:	e2832001 	add	r2, r3, #1
    96a4:	e50b2010 	str	r2, [fp, #-16]
    96a8:	e5d33000 	ldrb	r3, [r3]
    96ac:	e54b3005 	strb	r3, [fp, #-5]
/Users/winterji/Desktop/FAV/Navazujici/OS/semestralka-kiv-os/sources/stdlib/src/stdstring.cpp:133
     	u2 = (unsigned char) *s2++;
    96b0:	e51b3014 	ldr	r3, [fp, #-20]	; 0xffffffec
    96b4:	e2832001 	add	r2, r3, #1
    96b8:	e50b2014 	str	r2, [fp, #-20]	; 0xffffffec
    96bc:	e5d33000 	ldrb	r3, [r3]
    96c0:	e54b3006 	strb	r3, [fp, #-6]
/Users/winterji/Desktop/FAV/Navazujici/OS/semestralka-kiv-os/sources/stdlib/src/stdstring.cpp:134
      	if (u1 != u2)
    96c4:	e55b2005 	ldrb	r2, [fp, #-5]
    96c8:	e55b3006 	ldrb	r3, [fp, #-6]
    96cc:	e1520003 	cmp	r2, r3
    96d0:	0a000003 	beq	96e4 <_Z7strncmpPKcS0_i+0x84>
/Users/winterji/Desktop/FAV/Navazujici/OS/semestralka-kiv-os/sources/stdlib/src/stdstring.cpp:135
        	return u1 - u2;
    96d4:	e55b2005 	ldrb	r2, [fp, #-5]
    96d8:	e55b3006 	ldrb	r3, [fp, #-6]
    96dc:	e0423003 	sub	r3, r2, r3
    96e0:	ea000005 	b	96fc <_Z7strncmpPKcS0_i+0x9c>
/Users/winterji/Desktop/FAV/Navazujici/OS/semestralka-kiv-os/sources/stdlib/src/stdstring.cpp:136
      	if (u1 == '\0')
    96e4:	e55b3005 	ldrb	r3, [fp, #-5]
    96e8:	e3530000 	cmp	r3, #0
    96ec:	1affffe1 	bne	9678 <_Z7strncmpPKcS0_i+0x18>
/Users/winterji/Desktop/FAV/Navazujici/OS/semestralka-kiv-os/sources/stdlib/src/stdstring.cpp:137
        	return 0;
    96f0:	e3a03000 	mov	r3, #0
    96f4:	ea000000 	b	96fc <_Z7strncmpPKcS0_i+0x9c>
/Users/winterji/Desktop/FAV/Navazujici/OS/semestralka-kiv-os/sources/stdlib/src/stdstring.cpp:140
    }

  	return 0;
    96f8:	e3a03000 	mov	r3, #0
/Users/winterji/Desktop/FAV/Navazujici/OS/semestralka-kiv-os/sources/stdlib/src/stdstring.cpp:141
}
    96fc:	e1a00003 	mov	r0, r3
    9700:	e28bd000 	add	sp, fp, #0
    9704:	e49db004 	pop	{fp}		; (ldr fp, [sp], #4)
    9708:	e12fff1e 	bx	lr

0000970c <_Z6strlenPKc>:
_Z6strlenPKc():
/Users/winterji/Desktop/FAV/Navazujici/OS/semestralka-kiv-os/sources/stdlib/src/stdstring.cpp:144

int strlen(const char* s)
{
    970c:	e52db004 	push	{fp}		; (str fp, [sp, #-4]!)
    9710:	e28db000 	add	fp, sp, #0
    9714:	e24dd014 	sub	sp, sp, #20
    9718:	e50b0010 	str	r0, [fp, #-16]
/Users/winterji/Desktop/FAV/Navazujici/OS/semestralka-kiv-os/sources/stdlib/src/stdstring.cpp:145
	int i = 0;
    971c:	e3a03000 	mov	r3, #0
    9720:	e50b3008 	str	r3, [fp, #-8]
/Users/winterji/Desktop/FAV/Navazujici/OS/semestralka-kiv-os/sources/stdlib/src/stdstring.cpp:147

	while (s[i] != '\0')
    9724:	e51b3008 	ldr	r3, [fp, #-8]
    9728:	e51b2010 	ldr	r2, [fp, #-16]
    972c:	e0823003 	add	r3, r2, r3
    9730:	e5d33000 	ldrb	r3, [r3]
    9734:	e3530000 	cmp	r3, #0
    9738:	0a000003 	beq	974c <_Z6strlenPKc+0x40>
/Users/winterji/Desktop/FAV/Navazujici/OS/semestralka-kiv-os/sources/stdlib/src/stdstring.cpp:148
		i++;
    973c:	e51b3008 	ldr	r3, [fp, #-8]
    9740:	e2833001 	add	r3, r3, #1
    9744:	e50b3008 	str	r3, [fp, #-8]
/Users/winterji/Desktop/FAV/Navazujici/OS/semestralka-kiv-os/sources/stdlib/src/stdstring.cpp:147
	while (s[i] != '\0')
    9748:	eafffff5 	b	9724 <_Z6strlenPKc+0x18>
/Users/winterji/Desktop/FAV/Navazujici/OS/semestralka-kiv-os/sources/stdlib/src/stdstring.cpp:150

	return i;
    974c:	e51b3008 	ldr	r3, [fp, #-8]
/Users/winterji/Desktop/FAV/Navazujici/OS/semestralka-kiv-os/sources/stdlib/src/stdstring.cpp:151
}
    9750:	e1a00003 	mov	r0, r3
    9754:	e28bd000 	add	sp, fp, #0
    9758:	e49db004 	pop	{fp}		; (ldr fp, [sp], #4)
    975c:	e12fff1e 	bx	lr

00009760 <_Z5bzeroPvi>:
_Z5bzeroPvi():
/Users/winterji/Desktop/FAV/Navazujici/OS/semestralka-kiv-os/sources/stdlib/src/stdstring.cpp:154

void bzero(void* memory, int length)
{
    9760:	e52db004 	push	{fp}		; (str fp, [sp, #-4]!)
    9764:	e28db000 	add	fp, sp, #0
    9768:	e24dd014 	sub	sp, sp, #20
    976c:	e50b0010 	str	r0, [fp, #-16]
    9770:	e50b1014 	str	r1, [fp, #-20]	; 0xffffffec
/Users/winterji/Desktop/FAV/Navazujici/OS/semestralka-kiv-os/sources/stdlib/src/stdstring.cpp:155
	char* mem = reinterpret_cast<char*>(memory);
    9774:	e51b3010 	ldr	r3, [fp, #-16]
    9778:	e50b300c 	str	r3, [fp, #-12]
/Users/winterji/Desktop/FAV/Navazujici/OS/semestralka-kiv-os/sources/stdlib/src/stdstring.cpp:157

	for (int i = 0; i < length; i++)
    977c:	e3a03000 	mov	r3, #0
    9780:	e50b3008 	str	r3, [fp, #-8]
/Users/winterji/Desktop/FAV/Navazujici/OS/semestralka-kiv-os/sources/stdlib/src/stdstring.cpp:157 (discriminator 3)
    9784:	e51b2008 	ldr	r2, [fp, #-8]
    9788:	e51b3014 	ldr	r3, [fp, #-20]	; 0xffffffec
    978c:	e1520003 	cmp	r2, r3
    9790:	aa000008 	bge	97b8 <_Z5bzeroPvi+0x58>
/Users/winterji/Desktop/FAV/Navazujici/OS/semestralka-kiv-os/sources/stdlib/src/stdstring.cpp:158 (discriminator 2)
		mem[i] = 0;
    9794:	e51b3008 	ldr	r3, [fp, #-8]
    9798:	e51b200c 	ldr	r2, [fp, #-12]
    979c:	e0823003 	add	r3, r2, r3
    97a0:	e3a02000 	mov	r2, #0
    97a4:	e5c32000 	strb	r2, [r3]
/Users/winterji/Desktop/FAV/Navazujici/OS/semestralka-kiv-os/sources/stdlib/src/stdstring.cpp:157 (discriminator 2)
	for (int i = 0; i < length; i++)
    97a8:	e51b3008 	ldr	r3, [fp, #-8]
    97ac:	e2833001 	add	r3, r3, #1
    97b0:	e50b3008 	str	r3, [fp, #-8]
    97b4:	eafffff2 	b	9784 <_Z5bzeroPvi+0x24>
/Users/winterji/Desktop/FAV/Navazujici/OS/semestralka-kiv-os/sources/stdlib/src/stdstring.cpp:159
}
    97b8:	e320f000 	nop	{0}
    97bc:	e28bd000 	add	sp, fp, #0
    97c0:	e49db004 	pop	{fp}		; (ldr fp, [sp], #4)
    97c4:	e12fff1e 	bx	lr

000097c8 <_Z6memcpyPKvPvi>:
_Z6memcpyPKvPvi():
/Users/winterji/Desktop/FAV/Navazujici/OS/semestralka-kiv-os/sources/stdlib/src/stdstring.cpp:162

void memcpy(const void* src, void* dst, int num)
{
    97c8:	e52db004 	push	{fp}		; (str fp, [sp, #-4]!)
    97cc:	e28db000 	add	fp, sp, #0
    97d0:	e24dd024 	sub	sp, sp, #36	; 0x24
    97d4:	e50b0018 	str	r0, [fp, #-24]	; 0xffffffe8
    97d8:	e50b101c 	str	r1, [fp, #-28]	; 0xffffffe4
    97dc:	e50b2020 	str	r2, [fp, #-32]	; 0xffffffe0
/Users/winterji/Desktop/FAV/Navazujici/OS/semestralka-kiv-os/sources/stdlib/src/stdstring.cpp:163
	const char* memsrc = reinterpret_cast<const char*>(src);
    97e0:	e51b3018 	ldr	r3, [fp, #-24]	; 0xffffffe8
    97e4:	e50b300c 	str	r3, [fp, #-12]
/Users/winterji/Desktop/FAV/Navazujici/OS/semestralka-kiv-os/sources/stdlib/src/stdstring.cpp:164
	char* memdst = reinterpret_cast<char*>(dst);
    97e8:	e51b301c 	ldr	r3, [fp, #-28]	; 0xffffffe4
    97ec:	e50b3010 	str	r3, [fp, #-16]
/Users/winterji/Desktop/FAV/Navazujici/OS/semestralka-kiv-os/sources/stdlib/src/stdstring.cpp:166

	for (int i = 0; i < num; i++)
    97f0:	e3a03000 	mov	r3, #0
    97f4:	e50b3008 	str	r3, [fp, #-8]
/Users/winterji/Desktop/FAV/Navazujici/OS/semestralka-kiv-os/sources/stdlib/src/stdstring.cpp:166 (discriminator 3)
    97f8:	e51b2008 	ldr	r2, [fp, #-8]
    97fc:	e51b3020 	ldr	r3, [fp, #-32]	; 0xffffffe0
    9800:	e1520003 	cmp	r2, r3
    9804:	aa00000b 	bge	9838 <_Z6memcpyPKvPvi+0x70>
/Users/winterji/Desktop/FAV/Navazujici/OS/semestralka-kiv-os/sources/stdlib/src/stdstring.cpp:167 (discriminator 2)
		memdst[i] = memsrc[i];
    9808:	e51b3008 	ldr	r3, [fp, #-8]
    980c:	e51b200c 	ldr	r2, [fp, #-12]
    9810:	e0822003 	add	r2, r2, r3
    9814:	e51b3008 	ldr	r3, [fp, #-8]
    9818:	e51b1010 	ldr	r1, [fp, #-16]
    981c:	e0813003 	add	r3, r1, r3
    9820:	e5d22000 	ldrb	r2, [r2]
    9824:	e5c32000 	strb	r2, [r3]
/Users/winterji/Desktop/FAV/Navazujici/OS/semestralka-kiv-os/sources/stdlib/src/stdstring.cpp:166 (discriminator 2)
	for (int i = 0; i < num; i++)
    9828:	e51b3008 	ldr	r3, [fp, #-8]
    982c:	e2833001 	add	r3, r3, #1
    9830:	e50b3008 	str	r3, [fp, #-8]
    9834:	eaffffef 	b	97f8 <_Z6memcpyPKvPvi+0x30>
/Users/winterji/Desktop/FAV/Navazujici/OS/semestralka-kiv-os/sources/stdlib/src/stdstring.cpp:168
}
    9838:	e320f000 	nop	{0}
    983c:	e28bd000 	add	sp, fp, #0
    9840:	e49db004 	pop	{fp}		; (ldr fp, [sp], #4)
    9844:	e12fff1e 	bx	lr

00009848 <_Z6concatPcPKc>:
_Z6concatPcPKc():
/Users/winterji/Desktop/FAV/Navazujici/OS/semestralka-kiv-os/sources/stdlib/src/stdstring.cpp:170

void concat(char* dest, const char* src) {
    9848:	e92d4800 	push	{fp, lr}
    984c:	e28db004 	add	fp, sp, #4
    9850:	e24dd010 	sub	sp, sp, #16
    9854:	e50b0010 	str	r0, [fp, #-16]
    9858:	e50b1014 	str	r1, [fp, #-20]	; 0xffffffec
/Users/winterji/Desktop/FAV/Navazujici/OS/semestralka-kiv-os/sources/stdlib/src/stdstring.cpp:171
	int i = strlen(dest);
    985c:	e51b0010 	ldr	r0, [fp, #-16]
    9860:	ebffffa9 	bl	970c <_Z6strlenPKc>
    9864:	e50b0008 	str	r0, [fp, #-8]
/Users/winterji/Desktop/FAV/Navazujici/OS/semestralka-kiv-os/sources/stdlib/src/stdstring.cpp:172
	int j = strlen(src);
    9868:	e51b0014 	ldr	r0, [fp, #-20]	; 0xffffffec
    986c:	ebffffa6 	bl	970c <_Z6strlenPKc>
    9870:	e50b000c 	str	r0, [fp, #-12]
/Users/winterji/Desktop/FAV/Navazujici/OS/semestralka-kiv-os/sources/stdlib/src/stdstring.cpp:173
	strncpy(dest + i, src, j);
    9874:	e51b3008 	ldr	r3, [fp, #-8]
    9878:	e51b2010 	ldr	r2, [fp, #-16]
    987c:	e0823003 	add	r3, r2, r3
    9880:	e51b200c 	ldr	r2, [fp, #-12]
    9884:	e51b1014 	ldr	r1, [fp, #-20]	; 0xffffffec
    9888:	e1a00003 	mov	r0, r3
    988c:	ebffff43 	bl	95a0 <_Z7strncpyPcPKci>
/Users/winterji/Desktop/FAV/Navazujici/OS/semestralka-kiv-os/sources/stdlib/src/stdstring.cpp:174
	dest[i + j + 1] = '\0';
    9890:	e51b2008 	ldr	r2, [fp, #-8]
    9894:	e51b300c 	ldr	r3, [fp, #-12]
    9898:	e0823003 	add	r3, r2, r3
    989c:	e2833001 	add	r3, r3, #1
    98a0:	e51b2010 	ldr	r2, [fp, #-16]
    98a4:	e0823003 	add	r3, r2, r3
    98a8:	e3a02000 	mov	r2, #0
    98ac:	e5c32000 	strb	r2, [r3]
/Users/winterji/Desktop/FAV/Navazujici/OS/semestralka-kiv-os/sources/stdlib/src/stdstring.cpp:175
    98b0:	e320f000 	nop	{0}
    98b4:	e24bd004 	sub	sp, fp, #4
    98b8:	e8bd8800 	pop	{fp, pc}

000098bc <__udivsi3>:
__udivsi3():
    98bc:	e2512001 	subs	r2, r1, #1
    98c0:	012fff1e 	bxeq	lr
    98c4:	3a000074 	bcc	9a9c <__udivsi3+0x1e0>
    98c8:	e1500001 	cmp	r0, r1
    98cc:	9a00006b 	bls	9a80 <__udivsi3+0x1c4>
    98d0:	e1110002 	tst	r1, r2
    98d4:	0a00006c 	beq	9a8c <__udivsi3+0x1d0>
    98d8:	e16f3f10 	clz	r3, r0
    98dc:	e16f2f11 	clz	r2, r1
    98e0:	e0423003 	sub	r3, r2, r3
    98e4:	e273301f 	rsbs	r3, r3, #31
    98e8:	10833083 	addne	r3, r3, r3, lsl #1
    98ec:	e3a02000 	mov	r2, #0
    98f0:	108ff103 	addne	pc, pc, r3, lsl #2
    98f4:	e1a00000 	nop			; (mov r0, r0)
    98f8:	e1500f81 	cmp	r0, r1, lsl #31
    98fc:	e0a22002 	adc	r2, r2, r2
    9900:	20400f81 	subcs	r0, r0, r1, lsl #31
    9904:	e1500f01 	cmp	r0, r1, lsl #30
    9908:	e0a22002 	adc	r2, r2, r2
    990c:	20400f01 	subcs	r0, r0, r1, lsl #30
    9910:	e1500e81 	cmp	r0, r1, lsl #29
    9914:	e0a22002 	adc	r2, r2, r2
    9918:	20400e81 	subcs	r0, r0, r1, lsl #29
    991c:	e1500e01 	cmp	r0, r1, lsl #28
    9920:	e0a22002 	adc	r2, r2, r2
    9924:	20400e01 	subcs	r0, r0, r1, lsl #28
    9928:	e1500d81 	cmp	r0, r1, lsl #27
    992c:	e0a22002 	adc	r2, r2, r2
    9930:	20400d81 	subcs	r0, r0, r1, lsl #27
    9934:	e1500d01 	cmp	r0, r1, lsl #26
    9938:	e0a22002 	adc	r2, r2, r2
    993c:	20400d01 	subcs	r0, r0, r1, lsl #26
    9940:	e1500c81 	cmp	r0, r1, lsl #25
    9944:	e0a22002 	adc	r2, r2, r2
    9948:	20400c81 	subcs	r0, r0, r1, lsl #25
    994c:	e1500c01 	cmp	r0, r1, lsl #24
    9950:	e0a22002 	adc	r2, r2, r2
    9954:	20400c01 	subcs	r0, r0, r1, lsl #24
    9958:	e1500b81 	cmp	r0, r1, lsl #23
    995c:	e0a22002 	adc	r2, r2, r2
    9960:	20400b81 	subcs	r0, r0, r1, lsl #23
    9964:	e1500b01 	cmp	r0, r1, lsl #22
    9968:	e0a22002 	adc	r2, r2, r2
    996c:	20400b01 	subcs	r0, r0, r1, lsl #22
    9970:	e1500a81 	cmp	r0, r1, lsl #21
    9974:	e0a22002 	adc	r2, r2, r2
    9978:	20400a81 	subcs	r0, r0, r1, lsl #21
    997c:	e1500a01 	cmp	r0, r1, lsl #20
    9980:	e0a22002 	adc	r2, r2, r2
    9984:	20400a01 	subcs	r0, r0, r1, lsl #20
    9988:	e1500981 	cmp	r0, r1, lsl #19
    998c:	e0a22002 	adc	r2, r2, r2
    9990:	20400981 	subcs	r0, r0, r1, lsl #19
    9994:	e1500901 	cmp	r0, r1, lsl #18
    9998:	e0a22002 	adc	r2, r2, r2
    999c:	20400901 	subcs	r0, r0, r1, lsl #18
    99a0:	e1500881 	cmp	r0, r1, lsl #17
    99a4:	e0a22002 	adc	r2, r2, r2
    99a8:	20400881 	subcs	r0, r0, r1, lsl #17
    99ac:	e1500801 	cmp	r0, r1, lsl #16
    99b0:	e0a22002 	adc	r2, r2, r2
    99b4:	20400801 	subcs	r0, r0, r1, lsl #16
    99b8:	e1500781 	cmp	r0, r1, lsl #15
    99bc:	e0a22002 	adc	r2, r2, r2
    99c0:	20400781 	subcs	r0, r0, r1, lsl #15
    99c4:	e1500701 	cmp	r0, r1, lsl #14
    99c8:	e0a22002 	adc	r2, r2, r2
    99cc:	20400701 	subcs	r0, r0, r1, lsl #14
    99d0:	e1500681 	cmp	r0, r1, lsl #13
    99d4:	e0a22002 	adc	r2, r2, r2
    99d8:	20400681 	subcs	r0, r0, r1, lsl #13
    99dc:	e1500601 	cmp	r0, r1, lsl #12
    99e0:	e0a22002 	adc	r2, r2, r2
    99e4:	20400601 	subcs	r0, r0, r1, lsl #12
    99e8:	e1500581 	cmp	r0, r1, lsl #11
    99ec:	e0a22002 	adc	r2, r2, r2
    99f0:	20400581 	subcs	r0, r0, r1, lsl #11
    99f4:	e1500501 	cmp	r0, r1, lsl #10
    99f8:	e0a22002 	adc	r2, r2, r2
    99fc:	20400501 	subcs	r0, r0, r1, lsl #10
    9a00:	e1500481 	cmp	r0, r1, lsl #9
    9a04:	e0a22002 	adc	r2, r2, r2
    9a08:	20400481 	subcs	r0, r0, r1, lsl #9
    9a0c:	e1500401 	cmp	r0, r1, lsl #8
    9a10:	e0a22002 	adc	r2, r2, r2
    9a14:	20400401 	subcs	r0, r0, r1, lsl #8
    9a18:	e1500381 	cmp	r0, r1, lsl #7
    9a1c:	e0a22002 	adc	r2, r2, r2
    9a20:	20400381 	subcs	r0, r0, r1, lsl #7
    9a24:	e1500301 	cmp	r0, r1, lsl #6
    9a28:	e0a22002 	adc	r2, r2, r2
    9a2c:	20400301 	subcs	r0, r0, r1, lsl #6
    9a30:	e1500281 	cmp	r0, r1, lsl #5
    9a34:	e0a22002 	adc	r2, r2, r2
    9a38:	20400281 	subcs	r0, r0, r1, lsl #5
    9a3c:	e1500201 	cmp	r0, r1, lsl #4
    9a40:	e0a22002 	adc	r2, r2, r2
    9a44:	20400201 	subcs	r0, r0, r1, lsl #4
    9a48:	e1500181 	cmp	r0, r1, lsl #3
    9a4c:	e0a22002 	adc	r2, r2, r2
    9a50:	20400181 	subcs	r0, r0, r1, lsl #3
    9a54:	e1500101 	cmp	r0, r1, lsl #2
    9a58:	e0a22002 	adc	r2, r2, r2
    9a5c:	20400101 	subcs	r0, r0, r1, lsl #2
    9a60:	e1500081 	cmp	r0, r1, lsl #1
    9a64:	e0a22002 	adc	r2, r2, r2
    9a68:	20400081 	subcs	r0, r0, r1, lsl #1
    9a6c:	e1500001 	cmp	r0, r1
    9a70:	e0a22002 	adc	r2, r2, r2
    9a74:	20400001 	subcs	r0, r0, r1
    9a78:	e1a00002 	mov	r0, r2
    9a7c:	e12fff1e 	bx	lr
    9a80:	03a00001 	moveq	r0, #1
    9a84:	13a00000 	movne	r0, #0
    9a88:	e12fff1e 	bx	lr
    9a8c:	e16f2f11 	clz	r2, r1
    9a90:	e262201f 	rsb	r2, r2, #31
    9a94:	e1a00230 	lsr	r0, r0, r2
    9a98:	e12fff1e 	bx	lr
    9a9c:	e3500000 	cmp	r0, #0
    9aa0:	13e00000 	mvnne	r0, #0
    9aa4:	ea000007 	b	9ac8 <__aeabi_idiv0>

00009aa8 <__aeabi_uidivmod>:
__aeabi_uidivmod():
    9aa8:	e3510000 	cmp	r1, #0
    9aac:	0afffffa 	beq	9a9c <__udivsi3+0x1e0>
    9ab0:	e92d4003 	push	{r0, r1, lr}
    9ab4:	ebffff80 	bl	98bc <__udivsi3>
    9ab8:	e8bd4006 	pop	{r1, r2, lr}
    9abc:	e0030092 	mul	r3, r2, r0
    9ac0:	e0411003 	sub	r1, r1, r3
    9ac4:	e12fff1e 	bx	lr

00009ac8 <__aeabi_idiv0>:
__aeabi_ldiv0():
    9ac8:	e12fff1e 	bx	lr
